---
triple:          'arm64-apple-darwin'
binary-path:     '/Volumes/HPP500/Downloads/dsa/DAY 96/introGraph'
relocations:
  - { offsetInCU: 0x5C, offset: 0x5C, size: 0x8, addend: 0x0, symName: __ZNSt3__1L19piecewise_constructE, symObjAddr: 0x50D5, symBinAddr: 0x100007BB5, symSize: 0x0 }
  - { offsetInCU: 0x74A9, offset: 0x74A9, size: 0x8, addend: 0x0, symName: __ZNSt3__124__put_character_sequenceB8ue170006IcNS_11char_traitsIcEEEERNS_13basic_ostreamIT_T0_EES7_PKS4_m, symObjAddr: 0x43D0, symBinAddr: 0x100006CC4, symSize: 0x1EC }
  - { offsetInCU: 0x8E0F, offset: 0x8E0F, size: 0x8, addend: 0x0, symName: __ZNSt3__1lsB8ue170006INS_11char_traitsIcEEEERNS_13basic_ostreamIcT_EES6_PKc, symObjAddr: 0x164, symBinAddr: 0x100002A58, symSize: 0x48 }
  - { offsetInCU: 0x8E55, offset: 0x8E55, size: 0x8, addend: 0x0, symName: __ZNSt3__14endlB8ue170006IcNS_11char_traitsIcEEEERNS_13basic_ostreamIT_T0_EES7_, symObjAddr: 0x1D8, symBinAddr: 0x100002ACC, symSize: 0x58 }
  - { offsetInCU: 0x98F4, offset: 0x98F4, size: 0x8, addend: 0x0, symName: __ZNSt3__116forward_as_tupleB8ue170006IJRKiEEENS_5tupleIJDpOT_EEES6_, symObjAddr: 0x119C, symBinAddr: 0x100003A90, symSize: 0x2C }
  - { offsetInCU: 0x992D, offset: 0x992D, size: 0x8, addend: 0x0, symName: __ZNSt3__116forward_as_tupleB8ue170006IJEEENS_5tupleIJDpOT_EEES4_, symObjAddr: 0x11C8, symBinAddr: 0x100003ABC, symSize: 0x4 }
  - { offsetInCU: 0x9951, offset: 0x9951, size: 0x8, addend: 0x0, symName: __ZNSt3__116__constrain_hashB8ue170006Emm, symObjAddr: 0x1290, symBinAddr: 0x100003B84, symSize: 0x98 }
  - { offsetInCU: 0x998B, offset: 0x998B, size: 0x8, addend: 0x0, symName: __ZNSt3__13maxB8ue170006ImEERKT_S3_S3_, symObjAddr: 0x15D4, symBinAddr: 0x100003EC8, symSize: 0x2C }
  - { offsetInCU: 0x99CE, offset: 0x99CE, size: 0x8, addend: 0x0, symName: __ZNSt3__116__is_hash_power2B8ue170006Em, symObjAddr: 0x1600, symBinAddr: 0x100003EF4, symSize: 0x50 }
  - { offsetInCU: 0x9A4B, offset: 0x9A4B, size: 0x8, addend: 0x0, symName: __ZNSt3__117__libcpp_allocateB8ue170006Emm, symObjAddr: 0x1C0C, symBinAddr: 0x100004500, symSize: 0x28 }
  - { offsetInCU: 0x9A88, offset: 0x9A88, size: 0x8, addend: 0x0, symName: __ZNSt3__121__libcpp_operator_newB8ue170006IJmEEEPvDpT_, symObjAddr: 0x1C4C, symBinAddr: 0x100004540, symSize: 0x24 }
  - { offsetInCU: 0x9ACC, offset: 0x9ACC, size: 0x8, addend: 0x0, symName: __ZNSt3__13getB8ue170006ILm0EJRKiEEERNS_13tuple_elementIXT_ENS_5tupleIJDpT0_EEEE4typeERS7_, symObjAddr: 0x1ECC, symBinAddr: 0x1000047C0, symSize: 0x24 }
  - { offsetInCU: 0x9B42, offset: 0x9B42, size: 0x8, addend: 0x0, symName: __ZNSt3__116__next_hash_pow2B8ue170006Em, symObjAddr: 0x2638, symBinAddr: 0x100004F2C, symSize: 0x6C }
  - { offsetInCU: 0x9B8A, offset: 0x9B8A, size: 0x8, addend: 0x0, symName: __ZNSt3__119__libcpp_deallocateB8ue170006EPvmm, symObjAddr: 0x292C, symBinAddr: 0x100005220, symSize: 0x30 }
  - { offsetInCU: 0x9BD2, offset: 0x9BD2, size: 0x8, addend: 0x0, symName: __ZNSt3__127__do_deallocate_handle_sizeB8ue170006IJEEEvPvmDpT_, symObjAddr: 0x295C, symBinAddr: 0x100005250, symSize: 0x28 }
  - { offsetInCU: 0x9C10, offset: 0x9C10, size: 0x8, addend: 0x0, symName: __ZNSt3__124__libcpp_operator_deleteB8ue170006IJPvEEEvDpT_, symObjAddr: 0x2984, symBinAddr: 0x100005278, symSize: 0x24 }
  - { offsetInCU: 0x9C45, offset: 0x9C45, size: 0x8, addend: 0x0, symName: __ZNSt3__112__libcpp_clzB8ue170006Em, symObjAddr: 0x2A5C, symBinAddr: 0x100005350, symSize: 0x1C }
  - { offsetInCU: 0x9C71, offset: 0x9C71, size: 0x8, addend: 0x0, symName: __ZNSt3__13maxB8ue170006ImNS_6__lessIvvEEEERKT_S5_S5_T0_, symObjAddr: 0x2A78, symBinAddr: 0x10000536C, symSize: 0x54 }
  - { offsetInCU: 0x9D85, offset: 0x9D85, size: 0x8, addend: 0x0, symName: __ZNSt3__1neB8ue170006ERKNS_19__hash_map_iteratorINS_15__hash_iteratorIPNS_11__hash_nodeINS_17__hash_value_typeIiNS_4listIiNS_9allocatorIiEEEEEEPvEEEEEESF_, symObjAddr: 0x3944, symBinAddr: 0x100006238, symSize: 0x30 }
  - { offsetInCU: 0x9DC2, offset: 0x9DC2, size: 0x8, addend: 0x0, symName: __ZNSt3__1neB8ue170006ERKNS_15__list_iteratorIiPvEES4_, symObjAddr: 0x3A28, symBinAddr: 0x10000631C, symSize: 0x34 }
  - { offsetInCU: 0x9DFF, offset: 0x9DFF, size: 0x8, addend: 0x0, symName: __ZNSt3__1neB8ue170006ERKNS_15__hash_iteratorIPNS_11__hash_nodeINS_17__hash_value_typeIiNS_4listIiNS_9allocatorIiEEEEEEPvEEEESD_, symObjAddr: 0x3B8C, symBinAddr: 0x100006480, symSize: 0x34 }
  - { offsetInCU: 0x9E3C, offset: 0x9E3C, size: 0x8, addend: 0x0, symName: __ZNSt3__1eqB8ue170006ERKNS_15__hash_iteratorIPNS_11__hash_nodeINS_17__hash_value_typeIiNS_4listIiNS_9allocatorIiEEEEEEPvEEEESD_, symObjAddr: 0x3BC0, symBinAddr: 0x1000064B4, symSize: 0x30 }
  - { offsetInCU: 0x9E79, offset: 0x9E79, size: 0x8, addend: 0x0, symName: __ZNSt3__1neB8ue170006ERKNS_21__list_const_iteratorIiPvEES4_, symObjAddr: 0x3E2C, symBinAddr: 0x100006720, symSize: 0x34 }
  - { offsetInCU: 0x9EB6, offset: 0x9EB6, size: 0x8, addend: 0x0, symName: __ZNSt3__1eqB8ue170006ERKNS_21__list_const_iteratorIiPvEES4_, symObjAddr: 0x4034, symBinAddr: 0x100006928, symSize: 0x30 }
  - { offsetInCU: 0x9EF3, offset: 0x9EF3, size: 0x8, addend: 0x0, symName: __ZNSt3__1eqB8ue170006ERKNS_15__list_iteratorIiPvEES4_, symObjAddr: 0x411C, symBinAddr: 0x100006A10, symSize: 0x30 }
  - { offsetInCU: 0x9F30, offset: 0x9F30, size: 0x8, addend: 0x0, symName: __ZNSt3__116__pad_and_outputB8ue170006IcNS_11char_traitsIcEEEENS_19ostreambuf_iteratorIT_T0_EES6_PKS4_S8_S8_RNS_8ios_baseES4_, symObjAddr: 0x460C, symBinAddr: 0x100006F00, symSize: 0x240 }
  - { offsetInCU: 0x9FFF, offset: 0x9FFF, size: 0x8, addend: 0x0, symName: __ZNSt3__112__to_addressB8ue170006IKcEEPT_S3_, symObjAddr: 0x4B74, symBinAddr: 0x100007468, symSize: 0x14 }
  - { offsetInCU: 0xA067, offset: 0xA067, size: 0x8, addend: 0x0, symName: __ZNSt3__19use_facetB8ue170006INS_5ctypeIcEEEERKT_RKNS_6localeE, symObjAddr: 0x4DF4, symBinAddr: 0x1000076E8, symSize: 0x2C }
  - { offsetInCU: 0xA534, offset: 0xA534, size: 0x8, addend: 0x0, symName: __ZNSt3__118__constexpr_strlenB8ue170006EPKc, symObjAddr: 0x4E8C, symBinAddr: 0x100007780, symSize: 0x24 }
  - { offsetInCU: 0xA695, offset: 0xA695, size: 0x8, addend: 0x0, symName: __ZSt28__throw_bad_array_new_lengthB8ue170006v, symObjAddr: 0x1BD8, symBinAddr: 0x1000044CC, symSize: 0x34 }
  - { offsetInCU: 0xD3E1, offset: 0xD3E1, size: 0x8, addend: 0x0, symName: _main, symObjAddr: 0x0, symBinAddr: 0x1000028F4, symSize: 0x164 }
  - { offsetInCU: 0xD46C, offset: 0xD46C, size: 0x8, addend: 0x0, symName: __ZNSt3__113basic_ostreamIcNS_11char_traitsIcEEElsB8ue170006EPFRS3_S4_E, symObjAddr: 0x1AC, symBinAddr: 0x100002AA0, symSize: 0x2C }
  - { offsetInCU: 0xD5A7, offset: 0xD5A7, size: 0x8, addend: 0x0, symName: __ZN5graphC1Ev, symObjAddr: 0x230, symBinAddr: 0x100002B24, symSize: 0x2C }
  - { offsetInCU: 0xD5D3, offset: 0xD5D3, size: 0x8, addend: 0x0, symName: __ZN5graph6addAdjEiib, symObjAddr: 0x25C, symBinAddr: 0x100002B50, symSize: 0x80 }
  - { offsetInCU: 0xD623, offset: 0xD623, size: 0x8, addend: 0x0, symName: __ZN5graph13printGraphAdjEv, symObjAddr: 0x2DC, symBinAddr: 0x100002BD0, symSize: 0x188 }
  - { offsetInCU: 0xD6E1, offset: 0xD6E1, size: 0x8, addend: 0x0, symName: __ZN5graphD1Ev, symObjAddr: 0x464, symBinAddr: 0x100002D58, symSize: 0x2C }
  - { offsetInCU: 0xD70D, offset: 0xD70D, size: 0x8, addend: 0x0, symName: __ZN5graphC2Ev, symObjAddr: 0x490, symBinAddr: 0x100002D84, symSize: 0x2C }
  - { offsetInCU: 0xD739, offset: 0xD739, size: 0x8, addend: 0x0, symName: __ZNSt3__113unordered_mapIiNS_4listIiNS_9allocatorIiEEEENS_4hashIiEENS_8equal_toIiEENS2_INS_4pairIKiS4_EEEEEC1B8ue170006Ev, symObjAddr: 0x4BC, symBinAddr: 0x100002DB0, symSize: 0x2C }
  - { offsetInCU: 0xD763, offset: 0xD763, size: 0x8, addend: 0x0, symName: __ZNSt3__113unordered_mapIiNS_4listIiNS_9allocatorIiEEEENS_4hashIiEENS_8equal_toIiEENS2_INS_4pairIKiS4_EEEEEC2B8ue170006Ev, symObjAddr: 0x4E8, symBinAddr: 0x100002DDC, symSize: 0x2C }
  - { offsetInCU: 0xD78D, offset: 0xD78D, size: 0x8, addend: 0x0, symName: __ZNSt3__112__hash_tableINS_17__hash_value_typeIiNS_4listIiNS_9allocatorIiEEEEEENS_22__unordered_map_hasherIiS6_NS_4hashIiEENS_8equal_toIiEELb1EEENS_21__unordered_map_equalIiS6_SB_S9_Lb1EEENS3_IS6_EEEC1Ev, symObjAddr: 0x514, symBinAddr: 0x100002E08, symSize: 0x2C }
  - { offsetInCU: 0xD7B9, offset: 0xD7B9, size: 0x8, addend: 0x0, symName: __ZNSt3__112__hash_tableINS_17__hash_value_typeIiNS_4listIiNS_9allocatorIiEEEEEENS_22__unordered_map_hasherIiS6_NS_4hashIiEENS_8equal_toIiEELb1EEENS_21__unordered_map_equalIiS6_SB_S9_Lb1EEENS3_IS6_EEEC2Ev, symObjAddr: 0x540, symBinAddr: 0x100002E34, symSize: 0x7C }
  - { offsetInCU: 0xD7E5, offset: 0xD7E5, size: 0x8, addend: 0x0, symName: __ZNSt3__110unique_ptrIA_PNS_16__hash_node_baseIPNS_11__hash_nodeINS_17__hash_value_typeIiNS_4listIiNS_9allocatorIiEEEEEEPvEEEENS_25__bucket_list_deallocatorINS5_ISD_EEEEEC1B8ue170006ILb1EvEEv, symObjAddr: 0x5BC, symBinAddr: 0x100002EB0, symSize: 0x2C }
  - { offsetInCU: 0xD81A, offset: 0xD81A, size: 0x8, addend: 0x0, symName: __ZNSt3__117__compressed_pairINS_16__hash_node_baseIPNS_11__hash_nodeINS_17__hash_value_typeIiNS_4listIiNS_9allocatorIiEEEEEEPvEEEENS5_ISA_EEEC1B8ue170006ILb1EvEEv, symObjAddr: 0x5E8, symBinAddr: 0x100002EDC, symSize: 0x2C }
  - { offsetInCU: 0xD859, offset: 0xD859, size: 0x8, addend: 0x0, symName: __ZNSt3__117__compressed_pairImNS_22__unordered_map_hasherIiNS_17__hash_value_typeIiNS_4listIiNS_9allocatorIiEEEEEENS_4hashIiEENS_8equal_toIiEELb1EEEEC1B8ue170006IiNS_18__default_init_tagEEEOT_OT0_, symObjAddr: 0x620, symBinAddr: 0x100002F14, symSize: 0x3C }
  - { offsetInCU: 0xD8B6, offset: 0xD8B6, size: 0x8, addend: 0x0, symName: __ZNSt3__117__compressed_pairIfNS_21__unordered_map_equalIiNS_17__hash_value_typeIiNS_4listIiNS_9allocatorIiEEEEEENS_8equal_toIiEENS_4hashIiEELb1EEEEC1B8ue170006IfNS_18__default_init_tagEEEOT_OT0_, symObjAddr: 0x65C, symBinAddr: 0x100002F50, symSize: 0x3C }
  - { offsetInCU: 0xD90E, offset: 0xD90E, size: 0x8, addend: 0x0, symName: __ZNSt3__110unique_ptrIA_PNS_16__hash_node_baseIPNS_11__hash_nodeINS_17__hash_value_typeIiNS_4listIiNS_9allocatorIiEEEEEEPvEEEENS_25__bucket_list_deallocatorINS5_ISD_EEEEEC2B8ue170006ILb1EvEEv, symObjAddr: 0x698, symBinAddr: 0x100002F8C, symSize: 0x3C }
  - { offsetInCU: 0xD948, offset: 0xD948, size: 0x8, addend: 0x0, symName: __ZNSt3__117__compressed_pairIPPNS_16__hash_node_baseIPNS_11__hash_nodeINS_17__hash_value_typeIiNS_4listIiNS_9allocatorIiEEEEEEPvEEEENS_25__bucket_list_deallocatorINS5_ISD_EEEEEC1B8ue170006INS_16__value_init_tagESK_EEOT_OT0_, symObjAddr: 0x6D4, symBinAddr: 0x100002FC8, symSize: 0x3C }
  - { offsetInCU: 0xD9A0, offset: 0xD9A0, size: 0x8, addend: 0x0, symName: __ZNSt3__117__compressed_pairIPPNS_16__hash_node_baseIPNS_11__hash_nodeINS_17__hash_value_typeIiNS_4listIiNS_9allocatorIiEEEEEEPvEEEENS_25__bucket_list_deallocatorINS5_ISD_EEEEEC2B8ue170006INS_16__value_init_tagESK_EEOT_OT0_, symObjAddr: 0x710, symBinAddr: 0x100003004, symSize: 0x40 }
  - { offsetInCU: 0xD9F8, offset: 0xD9F8, size: 0x8, addend: 0x0, symName: __ZNSt3__122__compressed_pair_elemIPPNS_16__hash_node_baseIPNS_11__hash_nodeINS_17__hash_value_typeIiNS_4listIiNS_9allocatorIiEEEEEEPvEEEELi0ELb0EEC2B8ue170006ENS_16__value_init_tagE, symObjAddr: 0x750, symBinAddr: 0x100003044, symSize: 0x18 }
  - { offsetInCU: 0xDA2D, offset: 0xDA2D, size: 0x8, addend: 0x0, symName: __ZNSt3__122__compressed_pair_elemINS_25__bucket_list_deallocatorINS_9allocatorIPNS_16__hash_node_baseIPNS_11__hash_nodeINS_17__hash_value_typeIiNS_4listIiNS2_IiEEEEEEPvEEEEEEEELi1ELb0EEC2B8ue170006ENS_16__value_init_tagE, symObjAddr: 0x768, symBinAddr: 0x10000305C, symSize: 0x2C }
  - { offsetInCU: 0xDA62, offset: 0xDA62, size: 0x8, addend: 0x0, symName: __ZNSt3__125__bucket_list_deallocatorINS_9allocatorIPNS_16__hash_node_baseIPNS_11__hash_nodeINS_17__hash_value_typeIiNS_4listIiNS1_IiEEEEEEPvEEEEEEEC1B8ue170006Ev, symObjAddr: 0x794, symBinAddr: 0x100003088, symSize: 0x2C }
  - { offsetInCU: 0xDA8C, offset: 0xDA8C, size: 0x8, addend: 0x0, symName: __ZNSt3__125__bucket_list_deallocatorINS_9allocatorIPNS_16__hash_node_baseIPNS_11__hash_nodeINS_17__hash_value_typeIiNS_4listIiNS1_IiEEEEEEPvEEEEEEEC2B8ue170006Ev, symObjAddr: 0x7C0, symBinAddr: 0x1000030B4, symSize: 0x40 }
  - { offsetInCU: 0xDAB6, offset: 0xDAB6, size: 0x8, addend: 0x0, symName: __ZNSt3__117__compressed_pairImNS_9allocatorIPNS_16__hash_node_baseIPNS_11__hash_nodeINS_17__hash_value_typeIiNS_4listIiNS1_IiEEEEEEPvEEEEEEEC1B8ue170006IiNS_18__default_init_tagEEEOT_OT0_, symObjAddr: 0x800, symBinAddr: 0x1000030F4, symSize: 0x3C }
  - { offsetInCU: 0xDB0E, offset: 0xDB0E, size: 0x8, addend: 0x0, symName: __ZNSt3__117__compressed_pairImNS_9allocatorIPNS_16__hash_node_baseIPNS_11__hash_nodeINS_17__hash_value_typeIiNS_4listIiNS1_IiEEEEEEPvEEEEEEEC2B8ue170006IiNS_18__default_init_tagEEEOT_OT0_, symObjAddr: 0x83C, symBinAddr: 0x100003130, symSize: 0x40 }
  - { offsetInCU: 0xDB66, offset: 0xDB66, size: 0x8, addend: 0x0, symName: __ZNSt3__122__compressed_pair_elemImLi0ELb0EEC2B8ue170006IivEEOT_, symObjAddr: 0x87C, symBinAddr: 0x100003170, symSize: 0x24 }
  - { offsetInCU: 0xDBA8, offset: 0xDBA8, size: 0x8, addend: 0x0, symName: __ZNSt3__122__compressed_pair_elemINS_9allocatorIPNS_16__hash_node_baseIPNS_11__hash_nodeINS_17__hash_value_typeIiNS_4listIiNS1_IiEEEEEEPvEEEEEELi1ELb1EEC2B8ue170006ENS_18__default_init_tagE, symObjAddr: 0x8A0, symBinAddr: 0x100003194, symSize: 0x2C }
  - { offsetInCU: 0xDBDD, offset: 0xDBDD, size: 0x8, addend: 0x0, symName: __ZNSt3__19allocatorIPNS_16__hash_node_baseIPNS_11__hash_nodeINS_17__hash_value_typeIiNS_4listIiNS0_IiEEEEEEPvEEEEEC2B8ue170006Ev, symObjAddr: 0x8CC, symBinAddr: 0x1000031C0, symSize: 0x2C }
  - { offsetInCU: 0xDC07, offset: 0xDC07, size: 0x8, addend: 0x0, symName: __ZNSt3__116__non_trivial_ifILb1ENS_9allocatorIPNS_16__hash_node_baseIPNS_11__hash_nodeINS_17__hash_value_typeIiNS_4listIiNS1_IiEEEEEEPvEEEEEEEC2B8ue170006Ev, symObjAddr: 0x8F8, symBinAddr: 0x1000031EC, symSize: 0x14 }
  - { offsetInCU: 0xDC31, offset: 0xDC31, size: 0x8, addend: 0x0, symName: __ZNSt3__117__compressed_pairINS_16__hash_node_baseIPNS_11__hash_nodeINS_17__hash_value_typeIiNS_4listIiNS_9allocatorIiEEEEEEPvEEEENS5_ISA_EEEC2B8ue170006ILb1EvEEv, symObjAddr: 0x90C, symBinAddr: 0x100003200, symSize: 0x34 }
  - { offsetInCU: 0xDC66, offset: 0xDC66, size: 0x8, addend: 0x0, symName: __ZNSt3__122__compressed_pair_elemINS_16__hash_node_baseIPNS_11__hash_nodeINS_17__hash_value_typeIiNS_4listIiNS_9allocatorIiEEEEEEPvEEEELi0ELb0EEC2B8ue170006ENS_16__value_init_tagE, symObjAddr: 0x940, symBinAddr: 0x100003234, symSize: 0x2C }
  - { offsetInCU: 0xDC9B, offset: 0xDC9B, size: 0x8, addend: 0x0, symName: __ZNSt3__122__compressed_pair_elemINS_9allocatorINS_11__hash_nodeINS_17__hash_value_typeIiNS_4listIiNS1_IiEEEEEEPvEEEELi1ELb1EEC2B8ue170006ENS_16__value_init_tagE, symObjAddr: 0x96C, symBinAddr: 0x100003260, symSize: 0x2C }
  - { offsetInCU: 0xDCD0, offset: 0xDCD0, size: 0x8, addend: 0x0, symName: __ZNSt3__116__hash_node_baseIPNS_11__hash_nodeINS_17__hash_value_typeIiNS_4listIiNS_9allocatorIiEEEEEEPvEEEC1B8ue170006Ev, symObjAddr: 0x998, symBinAddr: 0x10000328C, symSize: 0x2C }
  - { offsetInCU: 0xDCFA, offset: 0xDCFA, size: 0x8, addend: 0x0, symName: __ZNSt3__116__hash_node_baseIPNS_11__hash_nodeINS_17__hash_value_typeIiNS_4listIiNS_9allocatorIiEEEEEEPvEEEC2B8ue170006Ev, symObjAddr: 0x9C4, symBinAddr: 0x1000032B8, symSize: 0x18 }
  - { offsetInCU: 0xDD24, offset: 0xDD24, size: 0x8, addend: 0x0, symName: __ZNSt3__19allocatorINS_11__hash_nodeINS_17__hash_value_typeIiNS_4listIiNS0_IiEEEEEEPvEEEC2B8ue170006Ev, symObjAddr: 0x9DC, symBinAddr: 0x1000032D0, symSize: 0x2C }
  - { offsetInCU: 0xDD4E, offset: 0xDD4E, size: 0x8, addend: 0x0, symName: __ZNSt3__116__non_trivial_ifILb1ENS_9allocatorINS_11__hash_nodeINS_17__hash_value_typeIiNS_4listIiNS1_IiEEEEEEPvEEEEEC2B8ue170006Ev, symObjAddr: 0xA08, symBinAddr: 0x1000032FC, symSize: 0x14 }
  - { offsetInCU: 0xDD78, offset: 0xDD78, size: 0x8, addend: 0x0, symName: __ZNSt3__117__compressed_pairImNS_22__unordered_map_hasherIiNS_17__hash_value_typeIiNS_4listIiNS_9allocatorIiEEEEEENS_4hashIiEENS_8equal_toIiEELb1EEEEC2B8ue170006IiNS_18__default_init_tagEEEOT_OT0_, symObjAddr: 0xA1C, symBinAddr: 0x100003310, symSize: 0x40 }
  - { offsetInCU: 0xDDD0, offset: 0xDDD0, size: 0x8, addend: 0x0, symName: __ZNSt3__122__compressed_pair_elemINS_22__unordered_map_hasherIiNS_17__hash_value_typeIiNS_4listIiNS_9allocatorIiEEEEEENS_4hashIiEENS_8equal_toIiEELb1EEELi1ELb1EEC2B8ue170006ENS_18__default_init_tagE, symObjAddr: 0xA5C, symBinAddr: 0x100003350, symSize: 0x2C }
  - { offsetInCU: 0xDE05, offset: 0xDE05, size: 0x8, addend: 0x0, symName: __ZNSt3__122__unordered_map_hasherIiNS_17__hash_value_typeIiNS_4listIiNS_9allocatorIiEEEEEENS_4hashIiEENS_8equal_toIiEELb1EEC2B8ue170006Ev, symObjAddr: 0xA88, symBinAddr: 0x10000337C, symSize: 0x14 }
  - { offsetInCU: 0xDE2F, offset: 0xDE2F, size: 0x8, addend: 0x0, symName: __ZNSt3__117__compressed_pairIfNS_21__unordered_map_equalIiNS_17__hash_value_typeIiNS_4listIiNS_9allocatorIiEEEEEENS_8equal_toIiEENS_4hashIiEELb1EEEEC2B8ue170006IfNS_18__default_init_tagEEEOT_OT0_, symObjAddr: 0xA9C, symBinAddr: 0x100003390, symSize: 0x40 }
  - { offsetInCU: 0xDE87, offset: 0xDE87, size: 0x8, addend: 0x0, symName: __ZNSt3__122__compressed_pair_elemIfLi0ELb0EEC2B8ue170006IfvEEOT_, symObjAddr: 0xADC, symBinAddr: 0x1000033D0, symSize: 0x24 }
  - { offsetInCU: 0xDEC9, offset: 0xDEC9, size: 0x8, addend: 0x0, symName: __ZNSt3__122__compressed_pair_elemINS_21__unordered_map_equalIiNS_17__hash_value_typeIiNS_4listIiNS_9allocatorIiEEEEEENS_8equal_toIiEENS_4hashIiEELb1EEELi1ELb1EEC2B8ue170006ENS_18__default_init_tagE, symObjAddr: 0xB00, symBinAddr: 0x1000033F4, symSize: 0x2C }
  - { offsetInCU: 0xDEFE, offset: 0xDEFE, size: 0x8, addend: 0x0, symName: __ZNSt3__121__unordered_map_equalIiNS_17__hash_value_typeIiNS_4listIiNS_9allocatorIiEEEEEENS_8equal_toIiEENS_4hashIiEELb1EEC2B8ue170006Ev, symObjAddr: 0xB2C, symBinAddr: 0x100003420, symSize: 0x14 }
  - { offsetInCU: 0xDF28, offset: 0xDF28, size: 0x8, addend: 0x0, symName: __ZNSt3__113unordered_mapIiNS_4listIiNS_9allocatorIiEEEENS_4hashIiEENS_8equal_toIiEENS2_INS_4pairIKiS4_EEEEEixERSA_, symObjAddr: 0xB40, symBinAddr: 0x100003434, symSize: 0x80 }
  - { offsetInCU: 0xDF5F, offset: 0xDF5F, size: 0x8, addend: 0x0, symName: __ZNSt3__14listIiNS_9allocatorIiEEE9push_backERKi, symObjAddr: 0xBC0, symBinAddr: 0x1000034B4, symSize: 0xF4 }
  - { offsetInCU: 0xDFC8, offset: 0xDFC8, size: 0x8, addend: 0x0, symName: __ZNSt3__112__hash_tableINS_17__hash_value_typeIiNS_4listIiNS_9allocatorIiEEEEEENS_22__unordered_map_hasherIiS6_NS_4hashIiEENS_8equal_toIiEELb1EEENS_21__unordered_map_equalIiS6_SB_S9_Lb1EEENS3_IS6_EEE25__emplace_unique_key_argsIiJRKNS_21piecewise_construct_tENS_5tupleIJRKiEEENSL_IJEEEEEENS_4pairINS_15__hash_iteratorIPNS_11__hash_nodeIS6_PvEEEEbEERKT_DpOT0_, symObjAddr: 0xCB4, symBinAddr: 0x1000035A8, symSize: 0x4E8 }
  - { offsetInCU: 0xE0D2, offset: 0xE0D2, size: 0x8, addend: 0x0, symName: __ZNKSt3__115__hash_iteratorIPNS_11__hash_nodeINS_17__hash_value_typeIiNS_4listIiNS_9allocatorIiEEEEEEPvEEEptB8ue170006Ev, symObjAddr: 0x11CC, symBinAddr: 0x100003AC0, symSize: 0x30 }
  - { offsetInCU: 0xE0F8, offset: 0xE0F8, size: 0x8, addend: 0x0, symName: __ZNSt3__117__hash_value_typeIiNS_4listIiNS_9allocatorIiEEEEE11__get_valueB8ue170006Ev, symObjAddr: 0x11FC, symBinAddr: 0x100003AF0, symSize: 0x14 }
  - { offsetInCU: 0xE11E, offset: 0xE11E, size: 0x8, addend: 0x0, symName: __ZNSt3__112__hash_tableINS_17__hash_value_typeIiNS_4listIiNS_9allocatorIiEEEEEENS_22__unordered_map_hasherIiS6_NS_4hashIiEENS_8equal_toIiEELb1EEENS_21__unordered_map_equalIiS6_SB_S9_Lb1EEENS3_IS6_EEE13hash_functionB8ue170006Ev, symObjAddr: 0x1210, symBinAddr: 0x100003B04, symSize: 0x28 }
  - { offsetInCU: 0xE144, offset: 0xE144, size: 0x8, addend: 0x0, symName: __ZNKSt3__122__unordered_map_hasherIiNS_17__hash_value_typeIiNS_4listIiNS_9allocatorIiEEEEEENS_4hashIiEENS_8equal_toIiEELb1EEclB8ue170006ERKi, symObjAddr: 0x1238, symBinAddr: 0x100003B2C, symSize: 0x30 }
  - { offsetInCU: 0xE179, offset: 0xE179, size: 0x8, addend: 0x0, symName: __ZNKSt3__112__hash_tableINS_17__hash_value_typeIiNS_4listIiNS_9allocatorIiEEEEEENS_22__unordered_map_hasherIiS6_NS_4hashIiEENS_8equal_toIiEELb1EEENS_21__unordered_map_equalIiS6_SB_S9_Lb1EEENS3_IS6_EEE12bucket_countB8ue170006Ev, symObjAddr: 0x1268, symBinAddr: 0x100003B5C, symSize: 0x28 }
  - { offsetInCU: 0xE19F, offset: 0xE19F, size: 0x8, addend: 0x0, symName: __ZNKSt3__110unique_ptrIA_PNS_16__hash_node_baseIPNS_11__hash_nodeINS_17__hash_value_typeIiNS_4listIiNS_9allocatorIiEEEEEEPvEEEENS_25__bucket_list_deallocatorINS5_ISD_EEEEEixB8ue170006Em, symObjAddr: 0x1328, symBinAddr: 0x100003C1C, symSize: 0x34 }
  - { offsetInCU: 0xE1D4, offset: 0xE1D4, size: 0x8, addend: 0x0, symName: __ZNKSt3__116__hash_node_baseIPNS_11__hash_nodeINS_17__hash_value_typeIiNS_4listIiNS_9allocatorIiEEEEEEPvEEE6__hashB8ue170006Ev, symObjAddr: 0x135C, symBinAddr: 0x100003C50, symSize: 0x18 }
  - { offsetInCU: 0xE1FA, offset: 0xE1FA, size: 0x8, addend: 0x0, symName: __ZNSt3__112__hash_tableINS_17__hash_value_typeIiNS_4listIiNS_9allocatorIiEEEEEENS_22__unordered_map_hasherIiS6_NS_4hashIiEENS_8equal_toIiEELb1EEENS_21__unordered_map_equalIiS6_SB_S9_Lb1EEENS3_IS6_EEE6key_eqB8ue170006Ev, symObjAddr: 0x1374, symBinAddr: 0x100003C68, symSize: 0x28 }
  - { offsetInCU: 0xE220, offset: 0xE220, size: 0x8, addend: 0x0, symName: __ZNKSt3__121__unordered_map_equalIiNS_17__hash_value_typeIiNS_4listIiNS_9allocatorIiEEEEEENS_8equal_toIiEENS_4hashIiEELb1EEclB8ue170006ERKS6_RKi, symObjAddr: 0x139C, symBinAddr: 0x100003C90, symSize: 0x48 }
  - { offsetInCU: 0xE264, offset: 0xE264, size: 0x8, addend: 0x0, symName: __ZNSt3__116__hash_node_baseIPNS_11__hash_nodeINS_17__hash_value_typeIiNS_4listIiNS_9allocatorIiEEEEEEPvEEE8__upcastB8ue170006Ev, symObjAddr: 0x13E4, symBinAddr: 0x100003CD8, symSize: 0x24 }
  - { offsetInCU: 0xE28A, offset: 0xE28A, size: 0x8, addend: 0x0, symName: __ZNSt3__112__hash_tableINS_17__hash_value_typeIiNS_4listIiNS_9allocatorIiEEEEEENS_22__unordered_map_hasherIiS6_NS_4hashIiEENS_8equal_toIiEELb1EEENS_21__unordered_map_equalIiS6_SB_S9_Lb1EEENS3_IS6_EEE21__construct_node_hashIRKNS_21piecewise_construct_tEJNS_5tupleIJRKiEEENSL_IJEEEEEENS_10unique_ptrINS_11__hash_nodeIS6_PvEENS_22__hash_node_destructorINS3_IST_EEEEEEmOT_DpOT0_, symObjAddr: 0x1408, symBinAddr: 0x100003CFC, symSize: 0x150 }
  - { offsetInCU: 0xE326, offset: 0xE326, size: 0x8, addend: 0x0, symName: __ZNSt3__112__hash_tableINS_17__hash_value_typeIiNS_4listIiNS_9allocatorIiEEEEEENS_22__unordered_map_hasherIiS6_NS_4hashIiEENS_8equal_toIiEELb1EEENS_21__unordered_map_equalIiS6_SB_S9_Lb1EEENS3_IS6_EEE4sizeB8ue170006Ev, symObjAddr: 0x1558, symBinAddr: 0x100003E4C, symSize: 0x28 }
  - { offsetInCU: 0xE34C, offset: 0xE34C, size: 0x8, addend: 0x0, symName: __ZNSt3__112__hash_tableINS_17__hash_value_typeIiNS_4listIiNS_9allocatorIiEEEEEENS_22__unordered_map_hasherIiS6_NS_4hashIiEENS_8equal_toIiEELb1EEENS_21__unordered_map_equalIiS6_SB_S9_Lb1EEENS3_IS6_EEE15max_load_factorB8ue170006Ev, symObjAddr: 0x1580, symBinAddr: 0x100003E74, symSize: 0x28 }
  - { offsetInCU: 0xE372, offset: 0xE372, size: 0x8, addend: 0x0, symName: __ZNSt3__112__hash_tableINS_17__hash_value_typeIiNS_4listIiNS_9allocatorIiEEEEEENS_22__unordered_map_hasherIiS6_NS_4hashIiEENS_8equal_toIiEELb1EEENS_21__unordered_map_equalIiS6_SB_S9_Lb1EEENS3_IS6_EEE15__rehash_uniqueB8ue170006Em, symObjAddr: 0x15A8, symBinAddr: 0x100003E9C, symSize: 0x2C }
  - { offsetInCU: 0xE3A6, offset: 0xE3A6, size: 0x8, addend: 0x0, symName: __Z4ceilB8ue170006f, symObjAddr: 0x1650, symBinAddr: 0x100003F44, symSize: 0x18 }
  - { offsetInCU: 0xE3D5, offset: 0xE3D5, size: 0x8, addend: 0x0, symName: __ZNSt3__117__compressed_pairINS_16__hash_node_baseIPNS_11__hash_nodeINS_17__hash_value_typeIiNS_4listIiNS_9allocatorIiEEEEEEPvEEEENS5_ISA_EEE5firstB8ue170006Ev, symObjAddr: 0x1668, symBinAddr: 0x100003F5C, symSize: 0x24 }
  - { offsetInCU: 0xE3FB, offset: 0xE3FB, size: 0x8, addend: 0x0, symName: __ZNSt3__116__hash_node_baseIPNS_11__hash_nodeINS_17__hash_value_typeIiNS_4listIiNS_9allocatorIiEEEEEEPvEEE5__ptrB8ue170006Ev, symObjAddr: 0x168C, symBinAddr: 0x100003F80, symSize: 0x24 }
  - { offsetInCU: 0xE421, offset: 0xE421, size: 0x8, addend: 0x0, symName: __ZNKSt3__110unique_ptrINS_11__hash_nodeINS_17__hash_value_typeIiNS_4listIiNS_9allocatorIiEEEEEEPvEENS_22__hash_node_destructorINS4_IS9_EEEEEptB8ue170006Ev, symObjAddr: 0x16B0, symBinAddr: 0x100003FA4, symSize: 0x28 }
  - { offsetInCU: 0xE447, offset: 0xE447, size: 0x8, addend: 0x0, symName: __ZNKSt3__110unique_ptrINS_11__hash_nodeINS_17__hash_value_typeIiNS_4listIiNS_9allocatorIiEEEEEEPvEENS_22__hash_node_destructorINS4_IS9_EEEEE3getB8ue170006Ev, symObjAddr: 0x16D8, symBinAddr: 0x100003FCC, symSize: 0x28 }
  - { offsetInCU: 0xE46D, offset: 0xE46D, size: 0x8, addend: 0x0, symName: __ZNSt3__110unique_ptrINS_11__hash_nodeINS_17__hash_value_typeIiNS_4listIiNS_9allocatorIiEEEEEEPvEENS_22__hash_node_destructorINS4_IS9_EEEEE7releaseB8ue170006Ev, symObjAddr: 0x1700, symBinAddr: 0x100003FF4, symSize: 0x44 }
  - { offsetInCU: 0xE4A2, offset: 0xE4A2, size: 0x8, addend: 0x0, symName: __ZNSt3__110unique_ptrINS_11__hash_nodeINS_17__hash_value_typeIiNS_4listIiNS_9allocatorIiEEEEEEPvEENS_22__hash_node_destructorINS4_IS9_EEEEED1B8ue170006Ev, symObjAddr: 0x1744, symBinAddr: 0x100004038, symSize: 0x2C }
  - { offsetInCU: 0xE4CC, offset: 0xE4CC, size: 0x8, addend: 0x0, symName: __ZNSt3__115__hash_iteratorIPNS_11__hash_nodeINS_17__hash_value_typeIiNS_4listIiNS_9allocatorIiEEEEEEPvEEEC1B8ue170006EPNS_16__hash_node_baseISA_EE, symObjAddr: 0x1770, symBinAddr: 0x100004064, symSize: 0x34 }
  - { offsetInCU: 0xE50F, offset: 0xE50F, size: 0x8, addend: 0x0, symName: __ZNSt3__14pairINS_15__hash_iteratorIPNS_11__hash_nodeINS_17__hash_value_typeIiNS_4listIiNS_9allocatorIiEEEEEEPvEEEEbEC1B8ue170006ISC_RbLS9_0EEEOT_OT0_, symObjAddr: 0x17A4, symBinAddr: 0x100004098, symSize: 0x3C }
  - { offsetInCU: 0xE56D, offset: 0xE56D, size: 0x8, addend: 0x0, symName: __ZNSt3__117__compressed_pairImNS_22__unordered_map_hasherIiNS_17__hash_value_typeIiNS_4listIiNS_9allocatorIiEEEEEENS_4hashIiEENS_8equal_toIiEELb1EEEE6secondB8ue170006Ev, symObjAddr: 0x17E0, symBinAddr: 0x1000040D4, symSize: 0x24 }
  - { offsetInCU: 0xE593, offset: 0xE593, size: 0x8, addend: 0x0, symName: __ZNSt3__122__compressed_pair_elemINS_22__unordered_map_hasherIiNS_17__hash_value_typeIiNS_4listIiNS_9allocatorIiEEEEEENS_4hashIiEENS_8equal_toIiEELb1EEELi1ELb1EE5__getB8ue170006Ev, symObjAddr: 0x1804, symBinAddr: 0x1000040F8, symSize: 0x14 }
  - { offsetInCU: 0xE5B9, offset: 0xE5B9, size: 0x8, addend: 0x0, symName: __ZNKSt3__14hashIiEclB8ue170006Ei, symObjAddr: 0x1818, symBinAddr: 0x10000410C, symSize: 0x18 }
  - { offsetInCU: 0xE5EE, offset: 0xE5EE, size: 0x8, addend: 0x0, symName: __ZNKSt3__110unique_ptrIA_PNS_16__hash_node_baseIPNS_11__hash_nodeINS_17__hash_value_typeIiNS_4listIiNS_9allocatorIiEEEEEEPvEEEENS_25__bucket_list_deallocatorINS5_ISD_EEEEE11get_deleterB8ue170006Ev, symObjAddr: 0x1830, symBinAddr: 0x100004124, symSize: 0x24 }
  - { offsetInCU: 0xE614, offset: 0xE614, size: 0x8, addend: 0x0, symName: __ZNKSt3__125__bucket_list_deallocatorINS_9allocatorIPNS_16__hash_node_baseIPNS_11__hash_nodeINS_17__hash_value_typeIiNS_4listIiNS1_IiEEEEEEPvEEEEEEE4sizeB8ue170006Ev, symObjAddr: 0x1854, symBinAddr: 0x100004148, symSize: 0x28 }
  - { offsetInCU: 0xE63A, offset: 0xE63A, size: 0x8, addend: 0x0, symName: __ZNKSt3__117__compressed_pairIPPNS_16__hash_node_baseIPNS_11__hash_nodeINS_17__hash_value_typeIiNS_4listIiNS_9allocatorIiEEEEEEPvEEEENS_25__bucket_list_deallocatorINS5_ISD_EEEEE6secondB8ue170006Ev, symObjAddr: 0x187C, symBinAddr: 0x100004170, symSize: 0x28 }
  - { offsetInCU: 0xE660, offset: 0xE660, size: 0x8, addend: 0x0, symName: __ZNKSt3__122__compressed_pair_elemINS_25__bucket_list_deallocatorINS_9allocatorIPNS_16__hash_node_baseIPNS_11__hash_nodeINS_17__hash_value_typeIiNS_4listIiNS2_IiEEEEEEPvEEEEEEEELi1ELb0EE5__getB8ue170006Ev, symObjAddr: 0x18A4, symBinAddr: 0x100004198, symSize: 0x14 }
  - { offsetInCU: 0xE686, offset: 0xE686, size: 0x8, addend: 0x0, symName: __ZNKSt3__117__compressed_pairImNS_9allocatorIPNS_16__hash_node_baseIPNS_11__hash_nodeINS_17__hash_value_typeIiNS_4listIiNS1_IiEEEEEEPvEEEEEEE5firstB8ue170006Ev, symObjAddr: 0x18B8, symBinAddr: 0x1000041AC, symSize: 0x24 }
  - { offsetInCU: 0xE6AC, offset: 0xE6AC, size: 0x8, addend: 0x0, symName: __ZNKSt3__122__compressed_pair_elemImLi0ELb0EE5__getB8ue170006Ev, symObjAddr: 0x18DC, symBinAddr: 0x1000041D0, symSize: 0x14 }
  - { offsetInCU: 0xE6D2, offset: 0xE6D2, size: 0x8, addend: 0x0, symName: __ZNKSt3__117__compressed_pairIPPNS_16__hash_node_baseIPNS_11__hash_nodeINS_17__hash_value_typeIiNS_4listIiNS_9allocatorIiEEEEEEPvEEEENS_25__bucket_list_deallocatorINS5_ISD_EEEEE5firstB8ue170006Ev, symObjAddr: 0x18F0, symBinAddr: 0x1000041E4, symSize: 0x24 }
  - { offsetInCU: 0xE6F8, offset: 0xE6F8, size: 0x8, addend: 0x0, symName: __ZNKSt3__122__compressed_pair_elemIPPNS_16__hash_node_baseIPNS_11__hash_nodeINS_17__hash_value_typeIiNS_4listIiNS_9allocatorIiEEEEEEPvEEEELi0ELb0EE5__getB8ue170006Ev, symObjAddr: 0x1914, symBinAddr: 0x100004208, symSize: 0x14 }
  - { offsetInCU: 0xE71E, offset: 0xE71E, size: 0x8, addend: 0x0, symName: __ZNSt3__117__compressed_pairIfNS_21__unordered_map_equalIiNS_17__hash_value_typeIiNS_4listIiNS_9allocatorIiEEEEEENS_8equal_toIiEENS_4hashIiEELb1EEEE6secondB8ue170006Ev, symObjAddr: 0x1928, symBinAddr: 0x10000421C, symSize: 0x24 }
  - { offsetInCU: 0xE744, offset: 0xE744, size: 0x8, addend: 0x0, symName: __ZNSt3__122__compressed_pair_elemINS_21__unordered_map_equalIiNS_17__hash_value_typeIiNS_4listIiNS_9allocatorIiEEEEEENS_8equal_toIiEENS_4hashIiEELb1EEELi1ELb1EE5__getB8ue170006Ev, symObjAddr: 0x194C, symBinAddr: 0x100004240, symSize: 0x14 }
  - { offsetInCU: 0xE76A, offset: 0xE76A, size: 0x8, addend: 0x0, symName: __ZNKSt3__18equal_toIiEclB8ue170006ERKiS3_, symObjAddr: 0x1960, symBinAddr: 0x100004254, symSize: 0x34 }
  - { offsetInCU: 0xE7AE, offset: 0xE7AE, size: 0x8, addend: 0x0, symName: __ZNKSt3__117__hash_value_typeIiNS_4listIiNS_9allocatorIiEEEEE11__get_valueB8ue170006Ev, symObjAddr: 0x1994, symBinAddr: 0x100004288, symSize: 0x14 }
  - { offsetInCU: 0xE7D4, offset: 0xE7D4, size: 0x8, addend: 0x0, symName: __ZNSt3__114pointer_traitsIPNS_16__hash_node_baseIPNS_11__hash_nodeINS_17__hash_value_typeIiNS_4listIiNS_9allocatorIiEEEEEEPvEEEEE10pointer_toB8ue170006ERSC_, symObjAddr: 0x19A8, symBinAddr: 0x10000429C, symSize: 0x14 }
  - { offsetInCU: 0xE7F7, offset: 0xE7F7, size: 0x8, addend: 0x0, symName: __ZNSt3__112__hash_tableINS_17__hash_value_typeIiNS_4listIiNS_9allocatorIiEEEEEENS_22__unordered_map_hasherIiS6_NS_4hashIiEENS_8equal_toIiEELb1EEENS_21__unordered_map_equalIiS6_SB_S9_Lb1EEENS3_IS6_EEE12__node_allocB8ue170006Ev, symObjAddr: 0x19BC, symBinAddr: 0x1000042B0, symSize: 0x28 }
  - { offsetInCU: 0xE81D, offset: 0xE81D, size: 0x8, addend: 0x0, symName: __ZNSt3__116allocator_traitsINS_9allocatorINS_11__hash_nodeINS_17__hash_value_typeIiNS_4listIiNS1_IiEEEEEEPvEEEEE8allocateB8ue170006ERSA_m, symObjAddr: 0x19E4, symBinAddr: 0x1000042D8, symSize: 0x2C }
  - { offsetInCU: 0xE850, offset: 0xE850, size: 0x8, addend: 0x0, symName: __ZNSt3__122__hash_node_destructorINS_9allocatorINS_11__hash_nodeINS_17__hash_value_typeIiNS_4listIiNS1_IiEEEEEEPvEEEEEC1B8ue170006ERSA_b, symObjAddr: 0x1A10, symBinAddr: 0x100004304, symSize: 0x48 }
  - { offsetInCU: 0xE89D, offset: 0xE89D, size: 0x8, addend: 0x0, symName: __ZNSt3__110unique_ptrINS_11__hash_nodeINS_17__hash_value_typeIiNS_4listIiNS_9allocatorIiEEEEEEPvEENS_22__hash_node_destructorINS4_IS9_EEEEEC1B8ue170006ILb1EvEEPS9_NS_16__dependent_typeINS_27__unique_ptr_deleter_sfinaeISC_EEXT_EE20__good_rval_ref_typeE, symObjAddr: 0x1A58, symBinAddr: 0x10000434C, symSize: 0x3C }
  - { offsetInCU: 0xE8EE, offset: 0xE8EE, size: 0x8, addend: 0x0, symName: __ZNSt3__116allocator_traitsINS_9allocatorINS_11__hash_nodeINS_17__hash_value_typeIiNS_4listIiNS1_IiEEEEEEPvEEEEE9constructB8ue170006INS_4pairIKiS6_EEJRKNS_21piecewise_construct_tENS_5tupleIJRSE_EEENSJ_IJEEEEvEEvRSA_PT_DpOT0_, symObjAddr: 0x1A94, symBinAddr: 0x100004388, symSize: 0x44 }
  - { offsetInCU: 0xE96D, offset: 0xE96D, size: 0x8, addend: 0x0, symName: __ZNSt3__122__hash_key_value_typesINS_17__hash_value_typeIiNS_4listIiNS_9allocatorIiEEEEEEE9__get_ptrB8ue170006ERS6_, symObjAddr: 0x1AD8, symBinAddr: 0x1000043CC, symSize: 0x24 }
  - { offsetInCU: 0xE990, offset: 0xE990, size: 0x8, addend: 0x0, symName: __ZNSt3__110unique_ptrINS_11__hash_nodeINS_17__hash_value_typeIiNS_4listIiNS_9allocatorIiEEEEEEPvEENS_22__hash_node_destructorINS4_IS9_EEEEE11get_deleterB8ue170006Ev, symObjAddr: 0x1AFC, symBinAddr: 0x1000043F0, symSize: 0x24 }
  - { offsetInCU: 0xE9B6, offset: 0xE9B6, size: 0x8, addend: 0x0, symName: __ZNSt3__117__compressed_pairINS_16__hash_node_baseIPNS_11__hash_nodeINS_17__hash_value_typeIiNS_4listIiNS_9allocatorIiEEEEEEPvEEEENS5_ISA_EEE6secondB8ue170006Ev, symObjAddr: 0x1B20, symBinAddr: 0x100004414, symSize: 0x24 }
  - { offsetInCU: 0xE9DC, offset: 0xE9DC, size: 0x8, addend: 0x0, symName: __ZNSt3__122__compressed_pair_elemINS_9allocatorINS_11__hash_nodeINS_17__hash_value_typeIiNS_4listIiNS1_IiEEEEEEPvEEEELi1ELb1EE5__getB8ue170006Ev, symObjAddr: 0x1B44, symBinAddr: 0x100004438, symSize: 0x14 }
  - { offsetInCU: 0xEA02, offset: 0xEA02, size: 0x8, addend: 0x0, symName: __ZNSt3__19allocatorINS_11__hash_nodeINS_17__hash_value_typeIiNS_4listIiNS0_IiEEEEEEPvEEE8allocateB8ue170006Em, symObjAddr: 0x1B58, symBinAddr: 0x10000444C, symSize: 0x5C }
  - { offsetInCU: 0xEA40, offset: 0xEA40, size: 0x8, addend: 0x0, symName: __ZNSt3__116allocator_traitsINS_9allocatorINS_11__hash_nodeINS_17__hash_value_typeIiNS_4listIiNS1_IiEEEEEEPvEEEEE8max_sizeB8ue170006ISA_vEEmRKSA_, symObjAddr: 0x1BB4, symBinAddr: 0x1000044A8, symSize: 0x24 }
  - { offsetInCU: 0xEA6E, offset: 0xEA6E, size: 0x8, addend: 0x0, symName: __ZNKSt3__19allocatorINS_11__hash_nodeINS_17__hash_value_typeIiNS_4listIiNS0_IiEEEEEEPvEEE8max_sizeB8ue170006Ev, symObjAddr: 0x1C34, symBinAddr: 0x100004528, symSize: 0x18 }
  - { offsetInCU: 0xEA94, offset: 0xEA94, size: 0x8, addend: 0x0, symName: __ZNSt3__122__hash_node_destructorINS_9allocatorINS_11__hash_nodeINS_17__hash_value_typeIiNS_4listIiNS1_IiEEEEEEPvEEEEEC2B8ue170006ERSA_b, symObjAddr: 0x1C70, symBinAddr: 0x100004564, symSize: 0x38 }
  - { offsetInCU: 0xEADC, offset: 0xEADC, size: 0x8, addend: 0x0, symName: __ZNSt3__110unique_ptrINS_11__hash_nodeINS_17__hash_value_typeIiNS_4listIiNS_9allocatorIiEEEEEEPvEENS_22__hash_node_destructorINS4_IS9_EEEEEC2B8ue170006ILb1EvEEPS9_NS_16__dependent_typeINS_27__unique_ptr_deleter_sfinaeISC_EEXT_EE20__good_rval_ref_typeE, symObjAddr: 0x1CA8, symBinAddr: 0x10000459C, symSize: 0x48 }
  - { offsetInCU: 0xEB2D, offset: 0xEB2D, size: 0x8, addend: 0x0, symName: __ZNSt3__117__compressed_pairIPNS_11__hash_nodeINS_17__hash_value_typeIiNS_4listIiNS_9allocatorIiEEEEEEPvEENS_22__hash_node_destructorINS4_IS9_EEEEEC1B8ue170006IRSA_SD_EEOT_OT0_, symObjAddr: 0x1CF0, symBinAddr: 0x1000045E4, symSize: 0x3C }
  - { offsetInCU: 0xEB85, offset: 0xEB85, size: 0x8, addend: 0x0, symName: __ZNSt3__117__compressed_pairIPNS_11__hash_nodeINS_17__hash_value_typeIiNS_4listIiNS_9allocatorIiEEEEEEPvEENS_22__hash_node_destructorINS4_IS9_EEEEEC2B8ue170006IRSA_SD_EEOT_OT0_, symObjAddr: 0x1D2C, symBinAddr: 0x100004620, symSize: 0x48 }
  - { offsetInCU: 0xEBDD, offset: 0xEBDD, size: 0x8, addend: 0x0, symName: __ZNSt3__122__compressed_pair_elemIPNS_11__hash_nodeINS_17__hash_value_typeIiNS_4listIiNS_9allocatorIiEEEEEEPvEELi0ELb0EEC2B8ue170006IRSA_vEEOT_, symObjAddr: 0x1D74, symBinAddr: 0x100004668, symSize: 0x24 }
  - { offsetInCU: 0xEC1F, offset: 0xEC1F, size: 0x8, addend: 0x0, symName: __ZNSt3__122__compressed_pair_elemINS_22__hash_node_destructorINS_9allocatorINS_11__hash_nodeINS_17__hash_value_typeIiNS_4listIiNS2_IiEEEEEEPvEEEEEELi1ELb0EEC2B8ue170006ISC_vEEOT_, symObjAddr: 0x1D98, symBinAddr: 0x10000468C, symSize: 0x24 }
  - { offsetInCU: 0xEC61, offset: 0xEC61, size: 0x8, addend: 0x0, symName: __ZNSt3__19allocatorINS_11__hash_nodeINS_17__hash_value_typeIiNS_4listIiNS0_IiEEEEEEPvEEE9constructB8ue170006INS_4pairIKiS5_EEJRKNS_21piecewise_construct_tENS_5tupleIJRSC_EEENSH_IJEEEEEEvPT_DpOT0_, symObjAddr: 0x1DBC, symBinAddr: 0x1000046B0, symSize: 0x44 }
  - { offsetInCU: 0xECDD, offset: 0xECDD, size: 0x8, addend: 0x0, symName: __ZNSt3__14pairIKiNS_4listIiNS_9allocatorIiEEEEEC1B8ue170006IJRS1_EJEEENS_21piecewise_construct_tENS_5tupleIJDpT_EEENSA_IJDpT0_EEE, symObjAddr: 0x1E00, symBinAddr: 0x1000046F4, symSize: 0x44 }
  - { offsetInCU: 0xED44, offset: 0xED44, size: 0x8, addend: 0x0, symName: __ZNSt3__14pairIKiNS_4listIiNS_9allocatorIiEEEEEC1B8ue170006IJRS1_EJEJLm0EEJEEENS_21piecewise_construct_tERNS_5tupleIJDpT_EEERNSA_IJDpT0_EEENS_15__tuple_indicesIJXspT1_EEEENSJ_IJXspT2_EEEE, symObjAddr: 0x1E44, symBinAddr: 0x100004738, symSize: 0x3C }
  - { offsetInCU: 0xEDD4, offset: 0xEDD4, size: 0x8, addend: 0x0, symName: __ZNSt3__14pairIKiNS_4listIiNS_9allocatorIiEEEEEC2B8ue170006IJRS1_EJEJLm0EEJEEENS_21piecewise_construct_tERNS_5tupleIJDpT_EEERNSA_IJDpT0_EEENS_15__tuple_indicesIJXspT1_EEEENSJ_IJXspT2_EEEE, symObjAddr: 0x1E80, symBinAddr: 0x100004774, symSize: 0x4C }
  - { offsetInCU: 0xEE64, offset: 0xEE64, size: 0x8, addend: 0x0, symName: __ZNSt3__14listIiNS_9allocatorIiEEEC1B8ue170006Ev, symObjAddr: 0x1EF0, symBinAddr: 0x1000047E4, symSize: 0x2C }
  - { offsetInCU: 0xEE8E, offset: 0xEE8E, size: 0x8, addend: 0x0, symName: __ZNSt3__112__tuple_leafILm0ERKiLb0EE3getB8ue170006Ev, symObjAddr: 0x1F1C, symBinAddr: 0x100004810, symSize: 0x18 }
  - { offsetInCU: 0xEEB4, offset: 0xEEB4, size: 0x8, addend: 0x0, symName: __ZNSt3__14listIiNS_9allocatorIiEEEC2B8ue170006Ev, symObjAddr: 0x1F34, symBinAddr: 0x100004828, symSize: 0x2C }
  - { offsetInCU: 0xEEDE, offset: 0xEEDE, size: 0x8, addend: 0x0, symName: __ZNSt3__110__list_impIiNS_9allocatorIiEEEC2Ev, symObjAddr: 0x1F60, symBinAddr: 0x100004854, symSize: 0x50 }
  - { offsetInCU: 0xEF0A, offset: 0xEF0A, size: 0x8, addend: 0x0, symName: __ZNSt3__116__list_node_baseIiPvEC1B8ue170006Ev, symObjAddr: 0x1FB0, symBinAddr: 0x1000048A4, symSize: 0x2C }
  - { offsetInCU: 0xEF34, offset: 0xEF34, size: 0x8, addend: 0x0, symName: __ZNSt3__117__compressed_pairImNS_9allocatorINS_11__list_nodeIiPvEEEEEC1B8ue170006IiNS_18__default_init_tagEEEOT_OT0_, symObjAddr: 0x1FDC, symBinAddr: 0x1000048D0, symSize: 0x3C }
  - { offsetInCU: 0xEF8C, offset: 0xEF8C, size: 0x8, addend: 0x0, symName: __ZNSt3__116__list_node_baseIiPvEC2B8ue170006Ev, symObjAddr: 0x2018, symBinAddr: 0x10000490C, symSize: 0x4C }
  - { offsetInCU: 0xEFB6, offset: 0xEFB6, size: 0x8, addend: 0x0, symName: __ZNSt3__126__list_node_pointer_traitsIiPvE26__unsafe_link_pointer_castB8ue170006EPNS_16__list_node_baseIiS1_EE, symObjAddr: 0x2064, symBinAddr: 0x100004958, symSize: 0x14 }
  - { offsetInCU: 0xEFDA, offset: 0xEFDA, size: 0x8, addend: 0x0, symName: __ZNSt3__116__list_node_baseIiPvE6__selfB8ue170006Ev, symObjAddr: 0x2078, symBinAddr: 0x10000496C, symSize: 0x24 }
  - { offsetInCU: 0xF005, offset: 0xF005, size: 0x8, addend: 0x0, symName: __ZNSt3__114pointer_traitsIPNS_16__list_node_baseIiPvEEE10pointer_toB8ue170006ERS3_, symObjAddr: 0x209C, symBinAddr: 0x100004990, symSize: 0x14 }
  - { offsetInCU: 0xF028, offset: 0xF028, size: 0x8, addend: 0x0, symName: __ZNSt3__117__compressed_pairImNS_9allocatorINS_11__list_nodeIiPvEEEEEC2B8ue170006IiNS_18__default_init_tagEEEOT_OT0_, symObjAddr: 0x20B0, symBinAddr: 0x1000049A4, symSize: 0x40 }
  - { offsetInCU: 0xF080, offset: 0xF080, size: 0x8, addend: 0x0, symName: __ZNSt3__122__compressed_pair_elemINS_9allocatorINS_11__list_nodeIiPvEEEELi1ELb1EEC2B8ue170006ENS_18__default_init_tagE, symObjAddr: 0x20F0, symBinAddr: 0x1000049E4, symSize: 0x2C }
  - { offsetInCU: 0xF0B5, offset: 0xF0B5, size: 0x8, addend: 0x0, symName: __ZNSt3__19allocatorINS_11__list_nodeIiPvEEEC2B8ue170006Ev, symObjAddr: 0x211C, symBinAddr: 0x100004A10, symSize: 0x2C }
  - { offsetInCU: 0xF0DF, offset: 0xF0DF, size: 0x8, addend: 0x0, symName: __ZNSt3__116__non_trivial_ifILb1ENS_9allocatorINS_11__list_nodeIiPvEEEEEC2B8ue170006Ev, symObjAddr: 0x2148, symBinAddr: 0x100004A3C, symSize: 0x14 }
  - { offsetInCU: 0xF109, offset: 0xF109, size: 0x8, addend: 0x0, symName: __ZNSt3__117__compressed_pairIPNS_11__hash_nodeINS_17__hash_value_typeIiNS_4listIiNS_9allocatorIiEEEEEEPvEENS_22__hash_node_destructorINS4_IS9_EEEEE6secondB8ue170006Ev, symObjAddr: 0x215C, symBinAddr: 0x100004A50, symSize: 0x28 }
  - { offsetInCU: 0xF12F, offset: 0xF12F, size: 0x8, addend: 0x0, symName: __ZNSt3__122__compressed_pair_elemINS_22__hash_node_destructorINS_9allocatorINS_11__hash_nodeINS_17__hash_value_typeIiNS_4listIiNS2_IiEEEEEEPvEEEEEELi1ELb0EE5__getB8ue170006Ev, symObjAddr: 0x2184, symBinAddr: 0x100004A78, symSize: 0x14 }
  - { offsetInCU: 0xF155, offset: 0xF155, size: 0x8, addend: 0x0, symName: __ZNSt3__117__compressed_pairImNS_22__unordered_map_hasherIiNS_17__hash_value_typeIiNS_4listIiNS_9allocatorIiEEEEEENS_4hashIiEENS_8equal_toIiEELb1EEEE5firstB8ue170006Ev, symObjAddr: 0x2198, symBinAddr: 0x100004A8C, symSize: 0x24 }
  - { offsetInCU: 0xF17B, offset: 0xF17B, size: 0x8, addend: 0x0, symName: __ZNSt3__122__compressed_pair_elemImLi0ELb0EE5__getB8ue170006Ev, symObjAddr: 0x21BC, symBinAddr: 0x100004AB0, symSize: 0x14 }
  - { offsetInCU: 0xF1A1, offset: 0xF1A1, size: 0x8, addend: 0x0, symName: __ZNSt3__117__compressed_pairIfNS_21__unordered_map_equalIiNS_17__hash_value_typeIiNS_4listIiNS_9allocatorIiEEEEEENS_8equal_toIiEENS_4hashIiEELb1EEEE5firstB8ue170006Ev, symObjAddr: 0x21D0, symBinAddr: 0x100004AC4, symSize: 0x24 }
  - { offsetInCU: 0xF1C7, offset: 0xF1C7, size: 0x8, addend: 0x0, symName: __ZNSt3__122__compressed_pair_elemIfLi0ELb0EE5__getB8ue170006Ev, symObjAddr: 0x21F4, symBinAddr: 0x100004AE8, symSize: 0x14 }
  - { offsetInCU: 0xF1ED, offset: 0xF1ED, size: 0x8, addend: 0x0, symName: __ZNSt3__112__hash_tableINS_17__hash_value_typeIiNS_4listIiNS_9allocatorIiEEEEEENS_22__unordered_map_hasherIiS6_NS_4hashIiEENS_8equal_toIiEELb1EEENS_21__unordered_map_equalIiS6_SB_S9_Lb1EEENS3_IS6_EEE8__rehashILb1EEEvm, symObjAddr: 0x2208, symBinAddr: 0x100004AFC, symSize: 0x1A8 }
  - { offsetInCU: 0xF23D, offset: 0xF23D, size: 0x8, addend: 0x0, symName: __ZNSt3__112__hash_tableINS_17__hash_value_typeIiNS_4listIiNS_9allocatorIiEEEEEENS_22__unordered_map_hasherIiS6_NS_4hashIiEENS_8equal_toIiEELb1EEENS_21__unordered_map_equalIiS6_SB_S9_Lb1EEENS3_IS6_EEE11__do_rehashILb1EEEvm, symObjAddr: 0x23B0, symBinAddr: 0x100004CA4, symSize: 0x288 }
  - { offsetInCU: 0xF324, offset: 0xF324, size: 0x8, addend: 0x0, symName: __ZNSt3__110unique_ptrIA_PNS_16__hash_node_baseIPNS_11__hash_nodeINS_17__hash_value_typeIiNS_4listIiNS_9allocatorIiEEEEEEPvEEEENS_25__bucket_list_deallocatorINS5_ISD_EEEEE11get_deleterB8ue170006Ev, symObjAddr: 0x26A4, symBinAddr: 0x100004F98, symSize: 0x24 }
  - { offsetInCU: 0xF34A, offset: 0xF34A, size: 0x8, addend: 0x0, symName: __ZNSt3__125__bucket_list_deallocatorINS_9allocatorIPNS_16__hash_node_baseIPNS_11__hash_nodeINS_17__hash_value_typeIiNS_4listIiNS1_IiEEEEEEPvEEEEEEE7__allocB8ue170006Ev, symObjAddr: 0x26C8, symBinAddr: 0x100004FBC, symSize: 0x24 }
  - { offsetInCU: 0xF370, offset: 0xF370, size: 0x8, addend: 0x0, symName: __ZNSt3__110unique_ptrIA_PNS_16__hash_node_baseIPNS_11__hash_nodeINS_17__hash_value_typeIiNS_4listIiNS_9allocatorIiEEEEEEPvEEEENS_25__bucket_list_deallocatorINS5_ISD_EEEEE5resetB8ue170006IPSD_EENS_9enable_ifIXsr28_CheckArrayPointerConversionIT_EE5valueEvE4typeESM_, symObjAddr: 0x26EC, symBinAddr: 0x100004FE0, symSize: 0x78 }
  - { offsetInCU: 0xF3BD, offset: 0xF3BD, size: 0x8, addend: 0x0, symName: __ZNSt3__116allocator_traitsINS_9allocatorIPNS_16__hash_node_baseIPNS_11__hash_nodeINS_17__hash_value_typeIiNS_4listIiNS1_IiEEEEEEPvEEEEEEE8allocateB8ue170006ERSE_m, symObjAddr: 0x2764, symBinAddr: 0x100005058, symSize: 0x2C }
  - { offsetInCU: 0xF3F0, offset: 0xF3F0, size: 0x8, addend: 0x0, symName: __ZNSt3__125__bucket_list_deallocatorINS_9allocatorIPNS_16__hash_node_baseIPNS_11__hash_nodeINS_17__hash_value_typeIiNS_4listIiNS1_IiEEEEEEPvEEEEEEE4sizeB8ue170006Ev, symObjAddr: 0x2790, symBinAddr: 0x100005084, symSize: 0x24 }
  - { offsetInCU: 0xF416, offset: 0xF416, size: 0x8, addend: 0x0, symName: __ZNSt3__117__compressed_pairIPPNS_16__hash_node_baseIPNS_11__hash_nodeINS_17__hash_value_typeIiNS_4listIiNS_9allocatorIiEEEEEEPvEEEENS_25__bucket_list_deallocatorINS5_ISD_EEEEE6secondB8ue170006Ev, symObjAddr: 0x27B4, symBinAddr: 0x1000050A8, symSize: 0x28 }
  - { offsetInCU: 0xF43C, offset: 0xF43C, size: 0x8, addend: 0x0, symName: __ZNSt3__122__compressed_pair_elemINS_25__bucket_list_deallocatorINS_9allocatorIPNS_16__hash_node_baseIPNS_11__hash_nodeINS_17__hash_value_typeIiNS_4listIiNS2_IiEEEEEEPvEEEEEEEELi1ELb0EE5__getB8ue170006Ev, symObjAddr: 0x27DC, symBinAddr: 0x1000050D0, symSize: 0x14 }
  - { offsetInCU: 0xF462, offset: 0xF462, size: 0x8, addend: 0x0, symName: __ZNSt3__117__compressed_pairImNS_9allocatorIPNS_16__hash_node_baseIPNS_11__hash_nodeINS_17__hash_value_typeIiNS_4listIiNS1_IiEEEEEEPvEEEEEEE6secondB8ue170006Ev, symObjAddr: 0x27F0, symBinAddr: 0x1000050E4, symSize: 0x24 }
  - { offsetInCU: 0xF488, offset: 0xF488, size: 0x8, addend: 0x0, symName: __ZNSt3__122__compressed_pair_elemINS_9allocatorIPNS_16__hash_node_baseIPNS_11__hash_nodeINS_17__hash_value_typeIiNS_4listIiNS1_IiEEEEEEPvEEEEEELi1ELb1EE5__getB8ue170006Ev, symObjAddr: 0x2814, symBinAddr: 0x100005108, symSize: 0x14 }
  - { offsetInCU: 0xF4AE, offset: 0xF4AE, size: 0x8, addend: 0x0, symName: __ZNSt3__117__compressed_pairIPPNS_16__hash_node_baseIPNS_11__hash_nodeINS_17__hash_value_typeIiNS_4listIiNS_9allocatorIiEEEEEEPvEEEENS_25__bucket_list_deallocatorINS5_ISD_EEEEE5firstB8ue170006Ev, symObjAddr: 0x2828, symBinAddr: 0x10000511C, symSize: 0x24 }
  - { offsetInCU: 0xF4D4, offset: 0xF4D4, size: 0x8, addend: 0x0, symName: __ZNSt3__125__bucket_list_deallocatorINS_9allocatorIPNS_16__hash_node_baseIPNS_11__hash_nodeINS_17__hash_value_typeIiNS_4listIiNS1_IiEEEEEEPvEEEEEEEclB8ue170006EPSD_, symObjAddr: 0x284C, symBinAddr: 0x100005140, symSize: 0x58 }
  - { offsetInCU: 0xF509, offset: 0xF509, size: 0x8, addend: 0x0, symName: __ZNSt3__122__compressed_pair_elemIPPNS_16__hash_node_baseIPNS_11__hash_nodeINS_17__hash_value_typeIiNS_4listIiNS_9allocatorIiEEEEEEPvEEEELi0ELb0EE5__getB8ue170006Ev, symObjAddr: 0x28A4, symBinAddr: 0x100005198, symSize: 0x14 }
  - { offsetInCU: 0xF52F, offset: 0xF52F, size: 0x8, addend: 0x0, symName: __ZNSt3__116allocator_traitsINS_9allocatorIPNS_16__hash_node_baseIPNS_11__hash_nodeINS_17__hash_value_typeIiNS_4listIiNS1_IiEEEEEEPvEEEEEEE10deallocateB8ue170006ERSE_PSD_m, symObjAddr: 0x28B8, symBinAddr: 0x1000051AC, symSize: 0x34 }
  - { offsetInCU: 0xF571, offset: 0xF571, size: 0x8, addend: 0x0, symName: __ZNSt3__19allocatorIPNS_16__hash_node_baseIPNS_11__hash_nodeINS_17__hash_value_typeIiNS_4listIiNS0_IiEEEEEEPvEEEEE10deallocateB8ue170006EPSC_m, symObjAddr: 0x28EC, symBinAddr: 0x1000051E0, symSize: 0x40 }
  - { offsetInCU: 0xF5B3, offset: 0xF5B3, size: 0x8, addend: 0x0, symName: __ZNSt3__19allocatorIPNS_16__hash_node_baseIPNS_11__hash_nodeINS_17__hash_value_typeIiNS_4listIiNS0_IiEEEEEEPvEEEEE8allocateB8ue170006Em, symObjAddr: 0x29A8, symBinAddr: 0x10000529C, symSize: 0x58 }
  - { offsetInCU: 0xF5F1, offset: 0xF5F1, size: 0x8, addend: 0x0, symName: __ZNSt3__116allocator_traitsINS_9allocatorIPNS_16__hash_node_baseIPNS_11__hash_nodeINS_17__hash_value_typeIiNS_4listIiNS1_IiEEEEEEPvEEEEEEE8max_sizeB8ue170006ISE_vEEmRKSE_, symObjAddr: 0x2A00, symBinAddr: 0x1000052F4, symSize: 0x24 }
  - { offsetInCU: 0xF61F, offset: 0xF61F, size: 0x8, addend: 0x0, symName: __ZNKSt3__19allocatorIPNS_16__hash_node_baseIPNS_11__hash_nodeINS_17__hash_value_typeIiNS_4listIiNS0_IiEEEEEEPvEEEEE8max_sizeB8ue170006Ev, symObjAddr: 0x2A24, symBinAddr: 0x100005318, symSize: 0x14 }
  - { offsetInCU: 0xF645, offset: 0xF645, size: 0x8, addend: 0x0, symName: __ZNSt3__117__compressed_pairImNS_9allocatorIPNS_16__hash_node_baseIPNS_11__hash_nodeINS_17__hash_value_typeIiNS_4listIiNS1_IiEEEEEEPvEEEEEEE5firstB8ue170006Ev, symObjAddr: 0x2A38, symBinAddr: 0x10000532C, symSize: 0x24 }
  - { offsetInCU: 0xF675, offset: 0xF675, size: 0x8, addend: 0x0, symName: __ZNKSt3__16__lessIvvEclB8ue170006ImmEEbRKT_RKT0_, symObjAddr: 0x2ACC, symBinAddr: 0x1000053C0, symSize: 0x34 }
  - { offsetInCU: 0xF6C9, offset: 0xF6C9, size: 0x8, addend: 0x0, symName: __ZNSt3__122__compressed_pair_elemINS_16__hash_node_baseIPNS_11__hash_nodeINS_17__hash_value_typeIiNS_4listIiNS_9allocatorIiEEEEEEPvEEEELi0ELb0EE5__getB8ue170006Ev, symObjAddr: 0x2B00, symBinAddr: 0x1000053F4, symSize: 0x14 }
  - { offsetInCU: 0xF6EF, offset: 0xF6EF, size: 0x8, addend: 0x0, symName: __ZNKSt3__117__compressed_pairIPNS_11__hash_nodeINS_17__hash_value_typeIiNS_4listIiNS_9allocatorIiEEEEEEPvEENS_22__hash_node_destructorINS4_IS9_EEEEE5firstB8ue170006Ev, symObjAddr: 0x2B14, symBinAddr: 0x100005408, symSize: 0x24 }
  - { offsetInCU: 0xF715, offset: 0xF715, size: 0x8, addend: 0x0, symName: __ZNKSt3__122__compressed_pair_elemIPNS_11__hash_nodeINS_17__hash_value_typeIiNS_4listIiNS_9allocatorIiEEEEEEPvEELi0ELb0EE5__getB8ue170006Ev, symObjAddr: 0x2B38, symBinAddr: 0x10000542C, symSize: 0x14 }
  - { offsetInCU: 0xF73B, offset: 0xF73B, size: 0x8, addend: 0x0, symName: __ZNSt3__117__compressed_pairIPNS_11__hash_nodeINS_17__hash_value_typeIiNS_4listIiNS_9allocatorIiEEEEEEPvEENS_22__hash_node_destructorINS4_IS9_EEEEE5firstB8ue170006Ev, symObjAddr: 0x2B4C, symBinAddr: 0x100005440, symSize: 0x24 }
  - { offsetInCU: 0xF761, offset: 0xF761, size: 0x8, addend: 0x0, symName: __ZNSt3__122__compressed_pair_elemIPNS_11__hash_nodeINS_17__hash_value_typeIiNS_4listIiNS_9allocatorIiEEEEEEPvEELi0ELb0EE5__getB8ue170006Ev, symObjAddr: 0x2B70, symBinAddr: 0x100005464, symSize: 0x14 }
  - { offsetInCU: 0xF787, offset: 0xF787, size: 0x8, addend: 0x0, symName: __ZNSt3__110unique_ptrINS_11__hash_nodeINS_17__hash_value_typeIiNS_4listIiNS_9allocatorIiEEEEEEPvEENS_22__hash_node_destructorINS4_IS9_EEEEED2B8ue170006Ev, symObjAddr: 0x2B84, symBinAddr: 0x100005478, symSize: 0x30 }
  - { offsetInCU: 0xF7B1, offset: 0xF7B1, size: 0x8, addend: 0x0, symName: __ZNSt3__110unique_ptrINS_11__hash_nodeINS_17__hash_value_typeIiNS_4listIiNS_9allocatorIiEEEEEEPvEENS_22__hash_node_destructorINS4_IS9_EEEEE5resetB8ue170006EPS9_, symObjAddr: 0x2BB4, symBinAddr: 0x1000054A8, symSize: 0x78 }
  - { offsetInCU: 0xF7F5, offset: 0xF7F5, size: 0x8, addend: 0x0, symName: __ZNSt3__122__hash_node_destructorINS_9allocatorINS_11__hash_nodeINS_17__hash_value_typeIiNS_4listIiNS1_IiEEEEEEPvEEEEEclB8ue170006EPS9_, symObjAddr: 0x2C2C, symBinAddr: 0x100005520, symSize: 0x98 }
  - { offsetInCU: 0xF82A, offset: 0xF82A, size: 0x8, addend: 0x0, symName: __ZNSt3__116allocator_traitsINS_9allocatorINS_11__hash_nodeINS_17__hash_value_typeIiNS_4listIiNS1_IiEEEEEEPvEEEEE7destroyB8ue170006INS_4pairIKiS6_EEvvEEvRSA_PT_, symObjAddr: 0x2CC4, symBinAddr: 0x1000055B8, symSize: 0x28 }
  - { offsetInCU: 0xF865, offset: 0xF865, size: 0x8, addend: 0x0, symName: __ZNSt3__116allocator_traitsINS_9allocatorINS_11__hash_nodeINS_17__hash_value_typeIiNS_4listIiNS1_IiEEEEEEPvEEEEE10deallocateB8ue170006ERSA_PS9_m, symObjAddr: 0x2CEC, symBinAddr: 0x1000055E0, symSize: 0x34 }
  - { offsetInCU: 0xF8A7, offset: 0xF8A7, size: 0x8, addend: 0x0, symName: __ZNSt3__14pairIKiNS_4listIiNS_9allocatorIiEEEEED1Ev, symObjAddr: 0x2D20, symBinAddr: 0x100005614, symSize: 0x2C }
  - { offsetInCU: 0xF8D3, offset: 0xF8D3, size: 0x8, addend: 0x0, symName: __ZNSt3__14pairIKiNS_4listIiNS_9allocatorIiEEEEED2Ev, symObjAddr: 0x2D4C, symBinAddr: 0x100005640, symSize: 0x30 }
  - { offsetInCU: 0xF8FF, offset: 0xF8FF, size: 0x8, addend: 0x0, symName: __ZNSt3__14listIiNS_9allocatorIiEEED1Ev, symObjAddr: 0x2D7C, symBinAddr: 0x100005670, symSize: 0x2C }
  - { offsetInCU: 0xF92C, offset: 0xF92C, size: 0x8, addend: 0x0, symName: __ZNSt3__14listIiNS_9allocatorIiEEED2Ev, symObjAddr: 0x2DA8, symBinAddr: 0x10000569C, symSize: 0x2C }
  - { offsetInCU: 0xF959, offset: 0xF959, size: 0x8, addend: 0x0, symName: __ZNSt3__110__list_impIiNS_9allocatorIiEEED2Ev, symObjAddr: 0x2DD4, symBinAddr: 0x1000056C8, symSize: 0x2C }
  - { offsetInCU: 0xF985, offset: 0xF985, size: 0x8, addend: 0x0, symName: __ZNSt3__110__list_impIiNS_9allocatorIiEEE5clearEv, symObjAddr: 0x2E00, symBinAddr: 0x1000056F4, symSize: 0xE0 }
  - { offsetInCU: 0xF9F5, offset: 0xF9F5, size: 0x8, addend: 0x0, symName: __ZNKSt3__110__list_impIiNS_9allocatorIiEEE5emptyB8ue170006Ev, symObjAddr: 0x2EE0, symBinAddr: 0x1000057D4, symSize: 0x34 }
  - { offsetInCU: 0xFA1B, offset: 0xFA1B, size: 0x8, addend: 0x0, symName: __ZNSt3__110__list_impIiNS_9allocatorIiEEE12__node_allocB8ue170006Ev, symObjAddr: 0x2F14, symBinAddr: 0x100005808, symSize: 0x28 }
  - { offsetInCU: 0xFA41, offset: 0xFA41, size: 0x8, addend: 0x0, symName: __ZNKSt3__110__list_impIiNS_9allocatorIiEEE13__end_as_linkB8ue170006Ev, symObjAddr: 0x2F3C, symBinAddr: 0x100005830, symSize: 0x28 }
  - { offsetInCU: 0xFA67, offset: 0xFA67, size: 0x8, addend: 0x0, symName: __ZNSt3__110__list_impIiNS_9allocatorIiEEE14__unlink_nodesEPNS_16__list_node_baseIiPvEES7_, symObjAddr: 0x2F64, symBinAddr: 0x100005858, symSize: 0x3C }
  - { offsetInCU: 0xFA9C, offset: 0xFA9C, size: 0x8, addend: 0x0, symName: __ZNSt3__110__list_impIiNS_9allocatorIiEEE4__szB8ue170006Ev, symObjAddr: 0x2FA0, symBinAddr: 0x100005894, symSize: 0x28 }
  - { offsetInCU: 0xFAC2, offset: 0xFAC2, size: 0x8, addend: 0x0, symName: __ZNSt3__116__list_node_baseIiPvE9__as_nodeB8ue170006Ev, symObjAddr: 0x2FC8, symBinAddr: 0x1000058BC, symSize: 0x24 }
  - { offsetInCU: 0xFAE8, offset: 0xFAE8, size: 0x8, addend: 0x0, symName: __ZNSt3__116allocator_traitsINS_9allocatorINS_11__list_nodeIiPvEEEEE7destroyB8ue170006IivvEEvRS5_PT_, symObjAddr: 0x2FEC, symBinAddr: 0x1000058E0, symSize: 0x14 }
  - { offsetInCU: 0xFB23, offset: 0xFB23, size: 0x8, addend: 0x0, symName: __ZNSt3__116allocator_traitsINS_9allocatorINS_11__list_nodeIiPvEEEEE10deallocateB8ue170006ERS5_PS4_m, symObjAddr: 0x3000, symBinAddr: 0x1000058F4, symSize: 0x34 }
  - { offsetInCU: 0xFB65, offset: 0xFB65, size: 0x8, addend: 0x0, symName: __ZNKSt3__110__list_impIiNS_9allocatorIiEEE4__szB8ue170006Ev, symObjAddr: 0x3034, symBinAddr: 0x100005928, symSize: 0x28 }
  - { offsetInCU: 0xFB8B, offset: 0xFB8B, size: 0x8, addend: 0x0, symName: __ZNKSt3__117__compressed_pairImNS_9allocatorINS_11__list_nodeIiPvEEEEE5firstB8ue170006Ev, symObjAddr: 0x305C, symBinAddr: 0x100005950, symSize: 0x24 }
  - { offsetInCU: 0xFBB1, offset: 0xFBB1, size: 0x8, addend: 0x0, symName: __ZNSt3__117__compressed_pairImNS_9allocatorINS_11__list_nodeIiPvEEEEE6secondB8ue170006Ev, symObjAddr: 0x3080, symBinAddr: 0x100005974, symSize: 0x24 }
  - { offsetInCU: 0xFBD7, offset: 0xFBD7, size: 0x8, addend: 0x0, symName: __ZNSt3__122__compressed_pair_elemINS_9allocatorINS_11__list_nodeIiPvEEEELi1ELb1EE5__getB8ue170006Ev, symObjAddr: 0x30A4, symBinAddr: 0x100005998, symSize: 0x14 }
  - { offsetInCU: 0xFBFD, offset: 0xFBFD, size: 0x8, addend: 0x0, symName: __ZNSt3__117__compressed_pairImNS_9allocatorINS_11__list_nodeIiPvEEEEE5firstB8ue170006Ev, symObjAddr: 0x30B8, symBinAddr: 0x1000059AC, symSize: 0x24 }
  - { offsetInCU: 0xFC23, offset: 0xFC23, size: 0x8, addend: 0x0, symName: __ZNSt3__19allocatorINS_11__list_nodeIiPvEEE10deallocateB8ue170006EPS3_m, symObjAddr: 0x30DC, symBinAddr: 0x1000059D0, symSize: 0x44 }
  - { offsetInCU: 0xFC65, offset: 0xFC65, size: 0x8, addend: 0x0, symName: __ZNSt3__19allocatorINS_11__hash_nodeINS_17__hash_value_typeIiNS_4listIiNS0_IiEEEEEEPvEEE10deallocateB8ue170006EPS8_m, symObjAddr: 0x3120, symBinAddr: 0x100005A14, symSize: 0x44 }
  - { offsetInCU: 0xFCA7, offset: 0xFCA7, size: 0x8, addend: 0x0, symName: __ZNSt3__115__hash_iteratorIPNS_11__hash_nodeINS_17__hash_value_typeIiNS_4listIiNS_9allocatorIiEEEEEEPvEEEC2B8ue170006EPNS_16__hash_node_baseISA_EE, symObjAddr: 0x3164, symBinAddr: 0x100005A58, symSize: 0x20 }
  - { offsetInCU: 0xFCE0, offset: 0xFCE0, size: 0x8, addend: 0x0, symName: __ZNSt3__14pairINS_15__hash_iteratorIPNS_11__hash_nodeINS_17__hash_value_typeIiNS_4listIiNS_9allocatorIiEEEEEEPvEEEEbEC2B8ue170006ISC_RbLS9_0EEEOT_OT0_, symObjAddr: 0x3184, symBinAddr: 0x100005A78, symSize: 0x38 }
  - { offsetInCU: 0xFD3E, offset: 0xFD3E, size: 0x8, addend: 0x0, symName: __ZNSt3__15tupleIJRKiEEC1B8ue170006INS_4_AndELi0EEES2_, symObjAddr: 0x31BC, symBinAddr: 0x100005AB0, symSize: 0x34 }
  - { offsetInCU: 0xFD86, offset: 0xFD86, size: 0x8, addend: 0x0, symName: __ZNSt3__15tupleIJRKiEEC2B8ue170006INS_4_AndELi0EEES2_, symObjAddr: 0x31F0, symBinAddr: 0x100005AE4, symSize: 0x34 }
  - { offsetInCU: 0xFDCE, offset: 0xFDCE, size: 0x8, addend: 0x0, symName: __ZNSt3__112__tuple_implINS_15__tuple_indicesIJLm0EEEEJRKiEEC1B8ue170006IJLm0EEJS4_EJEJEJS4_EEENS1_IJXspT_EEEENS_13__tuple_typesIJDpT0_EEENS1_IJXspT1_EEEENS8_IJDpT2_EEEDpOT3_, symObjAddr: 0x3224, symBinAddr: 0x100005B18, symSize: 0x34 }
  - { offsetInCU: 0xFE63, offset: 0xFE63, size: 0x8, addend: 0x0, symName: __ZNSt3__112__tuple_implINS_15__tuple_indicesIJLm0EEEEJRKiEEC2B8ue170006IJLm0EEJS4_EJEJEJS4_EEENS1_IJXspT_EEEENS_13__tuple_typesIJDpT0_EEENS1_IJXspT1_EEEENS8_IJDpT2_EEEDpOT3_, symObjAddr: 0x3258, symBinAddr: 0x100005B4C, symSize: 0x34 }
  - { offsetInCU: 0xFEF8, offset: 0xFEF8, size: 0x8, addend: 0x0, symName: __ZNSt3__112__tuple_leafILm0ERKiLb0EEC2B8ue170006IS2_vEEOT_, symObjAddr: 0x328C, symBinAddr: 0x100005B80, symSize: 0x20 }
  - { offsetInCU: 0xFF3B, offset: 0xFF3B, size: 0x8, addend: 0x0, symName: __ZNSt3__114pointer_traitsIPNS_17__hash_value_typeIiNS_4listIiNS_9allocatorIiEEEEEEE10pointer_toB8ue170006ERS6_, symObjAddr: 0x32AC, symBinAddr: 0x100005BA0, symSize: 0x14 }
  - { offsetInCU: 0xFF5E, offset: 0xFF5E, size: 0x8, addend: 0x0, symName: __ZNSt3__14listIiNS_9allocatorIiEEE15__allocate_nodeB8ue170006ERNS1_INS_11__list_nodeIiPvEEEE, symObjAddr: 0x32C0, symBinAddr: 0x100005BB4, symSize: 0x70 }
  - { offsetInCU: 0xFFA2, offset: 0xFFA2, size: 0x8, addend: 0x0, symName: __ZNSt3__116allocator_traitsINS_9allocatorINS_11__list_nodeIiPvEEEEE9constructB8ue170006IiJRKiEvEEvRS5_PT_DpOT0_, symObjAddr: 0x3330, symBinAddr: 0x100005C24, symSize: 0x34 }
  - { offsetInCU: 0xFFF9, offset: 0xFFF9, size: 0x8, addend: 0x0, symName: __ZNKSt3__110unique_ptrINS_11__list_nodeIiPvEENS_22__allocator_destructorINS_9allocatorIS3_EEEEEptB8ue170006Ev, symObjAddr: 0x3364, symBinAddr: 0x100005C58, symSize: 0x28 }
  - { offsetInCU: 0x1001F, offset: 0x1001F, size: 0x8, addend: 0x0, symName: __ZNSt3__14listIiNS_9allocatorIiEEE20__link_nodes_at_backEPNS_16__list_node_baseIiPvEES7_, symObjAddr: 0x338C, symBinAddr: 0x100005C80, symSize: 0x60 }
  - { offsetInCU: 0x10065, offset: 0x10065, size: 0x8, addend: 0x0, symName: __ZNKSt3__110unique_ptrINS_11__list_nodeIiPvEENS_22__allocator_destructorINS_9allocatorIS3_EEEEE3getB8ue170006Ev, symObjAddr: 0x33EC, symBinAddr: 0x100005CE0, symSize: 0x28 }
  - { offsetInCU: 0x1008B, offset: 0x1008B, size: 0x8, addend: 0x0, symName: __ZNSt3__111__list_nodeIiPvE9__as_linkB8ue170006Ev, symObjAddr: 0x3414, symBinAddr: 0x100005D08, symSize: 0x24 }
  - { offsetInCU: 0x100B1, offset: 0x100B1, size: 0x8, addend: 0x0, symName: __ZNSt3__110unique_ptrINS_11__list_nodeIiPvEENS_22__allocator_destructorINS_9allocatorIS3_EEEEE7releaseB8ue170006Ev, symObjAddr: 0x3438, symBinAddr: 0x100005D2C, symSize: 0x44 }
  - { offsetInCU: 0x100E6, offset: 0x100E6, size: 0x8, addend: 0x0, symName: __ZNSt3__110unique_ptrINS_11__list_nodeIiPvEENS_22__allocator_destructorINS_9allocatorIS3_EEEEED1B8ue170006Ev, symObjAddr: 0x347C, symBinAddr: 0x100005D70, symSize: 0x2C }
  - { offsetInCU: 0x10110, offset: 0x10110, size: 0x8, addend: 0x0, symName: __ZNSt3__116allocator_traitsINS_9allocatorINS_11__list_nodeIiPvEEEEE8allocateB8ue170006ERS5_m, symObjAddr: 0x34A8, symBinAddr: 0x100005D9C, symSize: 0x2C }
  - { offsetInCU: 0x10143, offset: 0x10143, size: 0x8, addend: 0x0, symName: __ZNSt3__122__allocator_destructorINS_9allocatorINS_11__list_nodeIiPvEEEEEC1B8ue170006ERS5_m, symObjAddr: 0x34D4, symBinAddr: 0x100005DC8, symSize: 0x3C }
  - { offsetInCU: 0x1018E, offset: 0x1018E, size: 0x8, addend: 0x0, symName: __ZNSt3__110unique_ptrINS_11__list_nodeIiPvEENS_22__allocator_destructorINS_9allocatorIS3_EEEEEC1B8ue170006ILb1EvEEPS3_NS_16__dependent_typeINS_27__unique_ptr_deleter_sfinaeIS7_EEXT_EE20__good_rval_ref_typeE, symObjAddr: 0x3510, symBinAddr: 0x100005E04, symSize: 0x3C }
  - { offsetInCU: 0x101DF, offset: 0x101DF, size: 0x8, addend: 0x0, symName: __ZNSt3__19allocatorINS_11__list_nodeIiPvEEE8allocateB8ue170006Em, symObjAddr: 0x354C, symBinAddr: 0x100005E40, symSize: 0x5C }
  - { offsetInCU: 0x1021D, offset: 0x1021D, size: 0x8, addend: 0x0, symName: __ZNSt3__116allocator_traitsINS_9allocatorINS_11__list_nodeIiPvEEEEE8max_sizeB8ue170006IS5_vEEmRKS5_, symObjAddr: 0x35A8, symBinAddr: 0x100005E9C, symSize: 0x24 }
  - { offsetInCU: 0x1024B, offset: 0x1024B, size: 0x8, addend: 0x0, symName: __ZNKSt3__19allocatorINS_11__list_nodeIiPvEEE8max_sizeB8ue170006Ev, symObjAddr: 0x35CC, symBinAddr: 0x100005EC0, symSize: 0x18 }
  - { offsetInCU: 0x10271, offset: 0x10271, size: 0x8, addend: 0x0, symName: __ZNSt3__122__allocator_destructorINS_9allocatorINS_11__list_nodeIiPvEEEEEC2B8ue170006ERS5_m, symObjAddr: 0x35E4, symBinAddr: 0x100005ED8, symSize: 0x2C }
  - { offsetInCU: 0x102B7, offset: 0x102B7, size: 0x8, addend: 0x0, symName: __ZNSt3__110unique_ptrINS_11__list_nodeIiPvEENS_22__allocator_destructorINS_9allocatorIS3_EEEEEC2B8ue170006ILb1EvEEPS3_NS_16__dependent_typeINS_27__unique_ptr_deleter_sfinaeIS7_EEXT_EE20__good_rval_ref_typeE, symObjAddr: 0x3610, symBinAddr: 0x100005F04, symSize: 0x48 }
  - { offsetInCU: 0x10308, offset: 0x10308, size: 0x8, addend: 0x0, symName: __ZNSt3__117__compressed_pairIPNS_11__list_nodeIiPvEENS_22__allocator_destructorINS_9allocatorIS3_EEEEEC1B8ue170006IRS4_S8_EEOT_OT0_, symObjAddr: 0x3658, symBinAddr: 0x100005F4C, symSize: 0x3C }
  - { offsetInCU: 0x10360, offset: 0x10360, size: 0x8, addend: 0x0, symName: __ZNSt3__117__compressed_pairIPNS_11__list_nodeIiPvEENS_22__allocator_destructorINS_9allocatorIS3_EEEEEC2B8ue170006IRS4_S8_EEOT_OT0_, symObjAddr: 0x3694, symBinAddr: 0x100005F88, symSize: 0x48 }
  - { offsetInCU: 0x103B8, offset: 0x103B8, size: 0x8, addend: 0x0, symName: __ZNSt3__122__compressed_pair_elemIPNS_11__list_nodeIiPvEELi0ELb0EEC2B8ue170006IRS4_vEEOT_, symObjAddr: 0x36DC, symBinAddr: 0x100005FD0, symSize: 0x24 }
  - { offsetInCU: 0x103FA, offset: 0x103FA, size: 0x8, addend: 0x0, symName: __ZNSt3__122__compressed_pair_elemINS_22__allocator_destructorINS_9allocatorINS_11__list_nodeIiPvEEEEEELi1ELb0EEC2B8ue170006IS7_vEEOT_, symObjAddr: 0x3700, symBinAddr: 0x100005FF4, symSize: 0x24 }
  - { offsetInCU: 0x1043C, offset: 0x1043C, size: 0x8, addend: 0x0, symName: __ZNSt3__19allocatorINS_11__list_nodeIiPvEEE9constructB8ue170006IiJRKiEEEvPT_DpOT0_, symObjAddr: 0x3724, symBinAddr: 0x100006018, symSize: 0x28 }
  - { offsetInCU: 0x10492, offset: 0x10492, size: 0x8, addend: 0x0, symName: __ZNKSt3__117__compressed_pairIPNS_11__list_nodeIiPvEENS_22__allocator_destructorINS_9allocatorIS3_EEEEE5firstB8ue170006Ev, symObjAddr: 0x374C, symBinAddr: 0x100006040, symSize: 0x24 }
  - { offsetInCU: 0x104B8, offset: 0x104B8, size: 0x8, addend: 0x0, symName: __ZNKSt3__122__compressed_pair_elemIPNS_11__list_nodeIiPvEELi0ELb0EE5__getB8ue170006Ev, symObjAddr: 0x3770, symBinAddr: 0x100006064, symSize: 0x14 }
  - { offsetInCU: 0x104DE, offset: 0x104DE, size: 0x8, addend: 0x0, symName: __ZNSt3__117__compressed_pairIPNS_11__list_nodeIiPvEENS_22__allocator_destructorINS_9allocatorIS3_EEEEE5firstB8ue170006Ev, symObjAddr: 0x3784, symBinAddr: 0x100006078, symSize: 0x24 }
  - { offsetInCU: 0x10504, offset: 0x10504, size: 0x8, addend: 0x0, symName: __ZNSt3__122__compressed_pair_elemIPNS_11__list_nodeIiPvEELi0ELb0EE5__getB8ue170006Ev, symObjAddr: 0x37A8, symBinAddr: 0x10000609C, symSize: 0x14 }
  - { offsetInCU: 0x1052A, offset: 0x1052A, size: 0x8, addend: 0x0, symName: __ZNSt3__110unique_ptrINS_11__list_nodeIiPvEENS_22__allocator_destructorINS_9allocatorIS3_EEEEED2B8ue170006Ev, symObjAddr: 0x37BC, symBinAddr: 0x1000060B0, symSize: 0x30 }
  - { offsetInCU: 0x10554, offset: 0x10554, size: 0x8, addend: 0x0, symName: __ZNSt3__110unique_ptrINS_11__list_nodeIiPvEENS_22__allocator_destructorINS_9allocatorIS3_EEEEE5resetB8ue170006EPS3_, symObjAddr: 0x37EC, symBinAddr: 0x1000060E0, symSize: 0x78 }
  - { offsetInCU: 0x10598, offset: 0x10598, size: 0x8, addend: 0x0, symName: __ZNSt3__117__compressed_pairIPNS_11__list_nodeIiPvEENS_22__allocator_destructorINS_9allocatorIS3_EEEEE6secondB8ue170006Ev, symObjAddr: 0x3864, symBinAddr: 0x100006158, symSize: 0x28 }
  - { offsetInCU: 0x105BE, offset: 0x105BE, size: 0x8, addend: 0x0, symName: __ZNSt3__122__allocator_destructorINS_9allocatorINS_11__list_nodeIiPvEEEEEclB8ue170006EPS4_, symObjAddr: 0x388C, symBinAddr: 0x100006180, symSize: 0x34 }
  - { offsetInCU: 0x105F2, offset: 0x105F2, size: 0x8, addend: 0x0, symName: __ZNSt3__122__compressed_pair_elemINS_22__allocator_destructorINS_9allocatorINS_11__list_nodeIiPvEEEEEELi1ELb0EE5__getB8ue170006Ev, symObjAddr: 0x38C0, symBinAddr: 0x1000061B4, symSize: 0x14 }
  - { offsetInCU: 0x10618, offset: 0x10618, size: 0x8, addend: 0x0, symName: __ZNSt3__113unordered_mapIiNS_4listIiNS_9allocatorIiEEEENS_4hashIiEENS_8equal_toIiEENS2_INS_4pairIKiS4_EEEEE5beginB8ue170006Ev, symObjAddr: 0x38D4, symBinAddr: 0x1000061C8, symSize: 0x38 }
  - { offsetInCU: 0x1063E, offset: 0x1063E, size: 0x8, addend: 0x0, symName: __ZNSt3__113unordered_mapIiNS_4listIiNS_9allocatorIiEEEENS_4hashIiEENS_8equal_toIiEENS2_INS_4pairIKiS4_EEEEE3endB8ue170006Ev, symObjAddr: 0x390C, symBinAddr: 0x100006200, symSize: 0x38 }
  - { offsetInCU: 0x10664, offset: 0x10664, size: 0x8, addend: 0x0, symName: __ZNKSt3__119__hash_map_iteratorINS_15__hash_iteratorIPNS_11__hash_nodeINS_17__hash_value_typeIiNS_4listIiNS_9allocatorIiEEEEEEPvEEEEEdeB8ue170006Ev, symObjAddr: 0x3974, symBinAddr: 0x100006268, symSize: 0x28 }
  - { offsetInCU: 0x1068A, offset: 0x1068A, size: 0x8, addend: 0x0, symName: __ZNSt3__14pairIKiNS_4listIiNS_9allocatorIiEEEEEC1B8ue170006ERKS6_, symObjAddr: 0x399C, symBinAddr: 0x100006290, symSize: 0x34 }
  - { offsetInCU: 0x106BF, offset: 0x106BF, size: 0x8, addend: 0x0, symName: __ZNSt3__14listIiNS_9allocatorIiEEE5beginB8ue170006Ev, symObjAddr: 0x39D0, symBinAddr: 0x1000062C4, symSize: 0x2C }
  - { offsetInCU: 0x106E5, offset: 0x106E5, size: 0x8, addend: 0x0, symName: __ZNSt3__14listIiNS_9allocatorIiEEE3endB8ue170006Ev, symObjAddr: 0x39FC, symBinAddr: 0x1000062F0, symSize: 0x2C }
  - { offsetInCU: 0x1070B, offset: 0x1070B, size: 0x8, addend: 0x0, symName: __ZNKSt3__115__list_iteratorIiPvEdeB8ue170006Ev, symObjAddr: 0x3A5C, symBinAddr: 0x100006350, symSize: 0x2C }
  - { offsetInCU: 0x10731, offset: 0x10731, size: 0x8, addend: 0x0, symName: __ZNSt3__115__list_iteratorIiPvEppB8ue170006Ev, symObjAddr: 0x3A88, symBinAddr: 0x10000637C, symSize: 0x20 }
  - { offsetInCU: 0x10757, offset: 0x10757, size: 0x8, addend: 0x0, symName: __ZNSt3__119__hash_map_iteratorINS_15__hash_iteratorIPNS_11__hash_nodeINS_17__hash_value_typeIiNS_4listIiNS_9allocatorIiEEEEEEPvEEEEEppB8ue170006Ev, symObjAddr: 0x3AA8, symBinAddr: 0x10000639C, symSize: 0x2C }
  - { offsetInCU: 0x1077D, offset: 0x1077D, size: 0x8, addend: 0x0, symName: __ZNSt3__112__hash_tableINS_17__hash_value_typeIiNS_4listIiNS_9allocatorIiEEEEEENS_22__unordered_map_hasherIiS6_NS_4hashIiEENS_8equal_toIiEELb1EEENS_21__unordered_map_equalIiS6_SB_S9_Lb1EEENS3_IS6_EEE5beginEv, symObjAddr: 0x3AD4, symBinAddr: 0x1000063C8, symSize: 0x38 }
  - { offsetInCU: 0x107A5, offset: 0x107A5, size: 0x8, addend: 0x0, symName: __ZNSt3__119__hash_map_iteratorINS_15__hash_iteratorIPNS_11__hash_nodeINS_17__hash_value_typeIiNS_4listIiNS_9allocatorIiEEEEEEPvEEEEEC1B8ue170006ESC_, symObjAddr: 0x3B0C, symBinAddr: 0x100006400, symSize: 0x34 }
  - { offsetInCU: 0x107DE, offset: 0x107DE, size: 0x8, addend: 0x0, symName: __ZNSt3__119__hash_map_iteratorINS_15__hash_iteratorIPNS_11__hash_nodeINS_17__hash_value_typeIiNS_4listIiNS_9allocatorIiEEEEEEPvEEEEEC2B8ue170006ESC_, symObjAddr: 0x3B40, symBinAddr: 0x100006434, symSize: 0x20 }
  - { offsetInCU: 0x10817, offset: 0x10817, size: 0x8, addend: 0x0, symName: __ZNSt3__112__hash_tableINS_17__hash_value_typeIiNS_4listIiNS_9allocatorIiEEEEEENS_22__unordered_map_hasherIiS6_NS_4hashIiEENS_8equal_toIiEELb1EEENS_21__unordered_map_equalIiS6_SB_S9_Lb1EEENS3_IS6_EEE3endEv, symObjAddr: 0x3B60, symBinAddr: 0x100006454, symSize: 0x2C }
  - { offsetInCU: 0x1083F, offset: 0x1083F, size: 0x8, addend: 0x0, symName: __ZNSt3__14pairIKiNS_4listIiNS_9allocatorIiEEEEEC2B8ue170006ERKS6_, symObjAddr: 0x3BF0, symBinAddr: 0x1000064E4, symSize: 0x48 }
  - { offsetInCU: 0x10874, offset: 0x10874, size: 0x8, addend: 0x0, symName: __ZNSt3__14listIiNS_9allocatorIiEEEC1ERKS3_, symObjAddr: 0x3C38, symBinAddr: 0x10000652C, symSize: 0x34 }
  - { offsetInCU: 0x108AF, offset: 0x108AF, size: 0x8, addend: 0x0, symName: __ZNSt3__14listIiNS_9allocatorIiEEEC2ERKS3_, symObjAddr: 0x3C6C, symBinAddr: 0x100006560, symSize: 0xDC }
  - { offsetInCU: 0x10917, offset: 0x10917, size: 0x8, addend: 0x0, symName: __ZNSt3__116allocator_traitsINS_9allocatorINS_11__list_nodeIiPvEEEEE37select_on_container_copy_constructionB8ue170006IS5_vvEES5_RKS5_, symObjAddr: 0x3D48, symBinAddr: 0x10000663C, symSize: 0x10 }
  - { offsetInCU: 0x10946, offset: 0x10946, size: 0x8, addend: 0x0, symName: __ZNKSt3__110__list_impIiNS_9allocatorIiEEE12__node_allocB8ue170006Ev, symObjAddr: 0x3D58, symBinAddr: 0x10000664C, symSize: 0x28 }
  - { offsetInCU: 0x1096C, offset: 0x1096C, size: 0x8, addend: 0x0, symName: __ZNSt3__110__list_impIiNS_9allocatorIiEEEC2EONS1_INS_11__list_nodeIiPvEEEE, symObjAddr: 0x3D80, symBinAddr: 0x100006674, symSize: 0x54 }
  - { offsetInCU: 0x109A7, offset: 0x109A7, size: 0x8, addend: 0x0, symName: __ZNKSt3__14listIiNS_9allocatorIiEEE5beginB8ue170006Ev, symObjAddr: 0x3DD4, symBinAddr: 0x1000066C8, symSize: 0x2C }
  - { offsetInCU: 0x109CD, offset: 0x109CD, size: 0x8, addend: 0x0, symName: __ZNKSt3__14listIiNS_9allocatorIiEEE3endB8ue170006Ev, symObjAddr: 0x3E00, symBinAddr: 0x1000066F4, symSize: 0x2C }
  - { offsetInCU: 0x109F3, offset: 0x109F3, size: 0x8, addend: 0x0, symName: __ZNKSt3__121__list_const_iteratorIiPvEdeB8ue170006Ev, symObjAddr: 0x3E60, symBinAddr: 0x100006754, symSize: 0x2C }
  - { offsetInCU: 0x10A19, offset: 0x10A19, size: 0x8, addend: 0x0, symName: __ZNSt3__121__list_const_iteratorIiPvEppB8ue170006Ev, symObjAddr: 0x3E8C, symBinAddr: 0x100006780, symSize: 0x20 }
  - { offsetInCU: 0x10A3F, offset: 0x10A3F, size: 0x8, addend: 0x0, symName: __ZNKSt3__117__compressed_pairImNS_9allocatorINS_11__list_nodeIiPvEEEEE6secondB8ue170006Ev, symObjAddr: 0x3EAC, symBinAddr: 0x1000067A0, symSize: 0x24 }
  - { offsetInCU: 0x10A65, offset: 0x10A65, size: 0x8, addend: 0x0, symName: __ZNKSt3__122__compressed_pair_elemINS_9allocatorINS_11__list_nodeIiPvEEEELi1ELb1EE5__getB8ue170006Ev, symObjAddr: 0x3ED0, symBinAddr: 0x1000067C4, symSize: 0x14 }
  - { offsetInCU: 0x10A90, offset: 0x10A90, size: 0x8, addend: 0x0, symName: __ZNSt3__117__compressed_pairImNS_9allocatorINS_11__list_nodeIiPvEEEEEC1B8ue170006IiS5_EEOT_OT0_, symObjAddr: 0x3EE4, symBinAddr: 0x1000067D8, symSize: 0x3C }
  - { offsetInCU: 0x10AE8, offset: 0x10AE8, size: 0x8, addend: 0x0, symName: __ZNSt3__117__compressed_pairImNS_9allocatorINS_11__list_nodeIiPvEEEEEC2B8ue170006IiS5_EEOT_OT0_, symObjAddr: 0x3F20, symBinAddr: 0x100006814, symSize: 0x44 }
  - { offsetInCU: 0x10B40, offset: 0x10B40, size: 0x8, addend: 0x0, symName: __ZNSt3__122__compressed_pair_elemINS_9allocatorINS_11__list_nodeIiPvEEEELi1ELb1EEC2B8ue170006IS5_vEEOT_, symObjAddr: 0x3F64, symBinAddr: 0x100006858, symSize: 0x18 }
  - { offsetInCU: 0x10B82, offset: 0x10B82, size: 0x8, addend: 0x0, symName: __ZNKSt3__110__list_impIiNS_9allocatorIiEEE5beginB8ue170006Ev, symObjAddr: 0x3F7C, symBinAddr: 0x100006870, symSize: 0x30 }
  - { offsetInCU: 0x10BA8, offset: 0x10BA8, size: 0x8, addend: 0x0, symName: __ZNSt3__121__list_const_iteratorIiPvEC1B8ue170006EPNS_16__list_node_baseIiS1_EE, symObjAddr: 0x3FAC, symBinAddr: 0x1000068A0, symSize: 0x34 }
  - { offsetInCU: 0x10BE1, offset: 0x10BE1, size: 0x8, addend: 0x0, symName: __ZNSt3__121__list_const_iteratorIiPvEC2B8ue170006EPNS_16__list_node_baseIiS1_EE, symObjAddr: 0x3FE0, symBinAddr: 0x1000068D4, symSize: 0x20 }
  - { offsetInCU: 0x10C1A, offset: 0x10C1A, size: 0x8, addend: 0x0, symName: __ZNKSt3__110__list_impIiNS_9allocatorIiEEE3endB8ue170006Ev, symObjAddr: 0x4000, symBinAddr: 0x1000068F4, symSize: 0x34 }
  - { offsetInCU: 0x10C40, offset: 0x10C40, size: 0x8, addend: 0x0, symName: __ZNSt3__110__list_impIiNS_9allocatorIiEEE5beginB8ue170006Ev, symObjAddr: 0x4064, symBinAddr: 0x100006958, symSize: 0x30 }
  - { offsetInCU: 0x10C66, offset: 0x10C66, size: 0x8, addend: 0x0, symName: __ZNSt3__115__list_iteratorIiPvEC1B8ue170006EPNS_16__list_node_baseIiS1_EE, symObjAddr: 0x4094, symBinAddr: 0x100006988, symSize: 0x34 }
  - { offsetInCU: 0x10C9F, offset: 0x10C9F, size: 0x8, addend: 0x0, symName: __ZNSt3__115__list_iteratorIiPvEC2B8ue170006EPNS_16__list_node_baseIiS1_EE, symObjAddr: 0x40C8, symBinAddr: 0x1000069BC, symSize: 0x20 }
  - { offsetInCU: 0x10CD8, offset: 0x10CD8, size: 0x8, addend: 0x0, symName: __ZNSt3__110__list_impIiNS_9allocatorIiEEE3endB8ue170006Ev, symObjAddr: 0x40E8, symBinAddr: 0x1000069DC, symSize: 0x34 }
  - { offsetInCU: 0x10CFE, offset: 0x10CFE, size: 0x8, addend: 0x0, symName: __ZNSt3__115__hash_iteratorIPNS_11__hash_nodeINS_17__hash_value_typeIiNS_4listIiNS_9allocatorIiEEEEEEPvEEEppB8ue170006Ev, symObjAddr: 0x414C, symBinAddr: 0x100006A40, symSize: 0x20 }
  - { offsetInCU: 0x10D24, offset: 0x10D24, size: 0x8, addend: 0x0, symName: __ZN5graphD2Ev, symObjAddr: 0x416C, symBinAddr: 0x100006A60, symSize: 0x2C }
  - { offsetInCU: 0x10D50, offset: 0x10D50, size: 0x8, addend: 0x0, symName: __ZNSt3__113unordered_mapIiNS_4listIiNS_9allocatorIiEEEENS_4hashIiEENS_8equal_toIiEENS2_INS_4pairIKiS4_EEEEED1B8ue170006Ev, symObjAddr: 0x4198, symBinAddr: 0x100006A8C, symSize: 0x2C }
  - { offsetInCU: 0x10D7A, offset: 0x10D7A, size: 0x8, addend: 0x0, symName: __ZNSt3__113unordered_mapIiNS_4listIiNS_9allocatorIiEEEENS_4hashIiEENS_8equal_toIiEENS2_INS_4pairIKiS4_EEEEED2B8ue170006Ev, symObjAddr: 0x41C4, symBinAddr: 0x100006AB8, symSize: 0x2C }
  - { offsetInCU: 0x10DA4, offset: 0x10DA4, size: 0x8, addend: 0x0, symName: __ZNSt3__112__hash_tableINS_17__hash_value_typeIiNS_4listIiNS_9allocatorIiEEEEEENS_22__unordered_map_hasherIiS6_NS_4hashIiEENS_8equal_toIiEELb1EEENS_21__unordered_map_equalIiS6_SB_S9_Lb1EEENS3_IS6_EEED1Ev, symObjAddr: 0x41F0, symBinAddr: 0x100006AE4, symSize: 0x2C }
  - { offsetInCU: 0x10DD0, offset: 0x10DD0, size: 0x8, addend: 0x0, symName: __ZNSt3__112__hash_tableINS_17__hash_value_typeIiNS_4listIiNS_9allocatorIiEEEEEENS_22__unordered_map_hasherIiS6_NS_4hashIiEENS_8equal_toIiEELb1EEENS_21__unordered_map_equalIiS6_SB_S9_Lb1EEENS3_IS6_EEED2Ev, symObjAddr: 0x421C, symBinAddr: 0x100006B10, symSize: 0x48 }
  - { offsetInCU: 0x10DFC, offset: 0x10DFC, size: 0x8, addend: 0x0, symName: __ZNSt3__112__hash_tableINS_17__hash_value_typeIiNS_4listIiNS_9allocatorIiEEEEEENS_22__unordered_map_hasherIiS6_NS_4hashIiEENS_8equal_toIiEELb1EEENS_21__unordered_map_equalIiS6_SB_S9_Lb1EEENS3_IS6_EEE17__deallocate_nodeEPNS_16__hash_node_baseIPNS_11__hash_nodeIS6_PvEEEE, symObjAddr: 0x4264, symBinAddr: 0x100006B58, symSize: 0xA4 }
  - { offsetInCU: 0x10E66, offset: 0x10E66, size: 0x8, addend: 0x0, symName: __ZNSt3__110unique_ptrIA_PNS_16__hash_node_baseIPNS_11__hash_nodeINS_17__hash_value_typeIiNS_4listIiNS_9allocatorIiEEEEEEPvEEEENS_25__bucket_list_deallocatorINS5_ISD_EEEEED1B8ue170006Ev, symObjAddr: 0x4308, symBinAddr: 0x100006BFC, symSize: 0x2C }
  - { offsetInCU: 0x10E90, offset: 0x10E90, size: 0x8, addend: 0x0, symName: __ZNSt3__110unique_ptrIA_PNS_16__hash_node_baseIPNS_11__hash_nodeINS_17__hash_value_typeIiNS_4listIiNS_9allocatorIiEEEEEEPvEEEENS_25__bucket_list_deallocatorINS5_ISD_EEEEED2B8ue170006Ev, symObjAddr: 0x4334, symBinAddr: 0x100006C28, symSize: 0x30 }
  - { offsetInCU: 0x10EBA, offset: 0x10EBA, size: 0x8, addend: 0x0, symName: __ZNSt3__110unique_ptrIA_PNS_16__hash_node_baseIPNS_11__hash_nodeINS_17__hash_value_typeIiNS_4listIiNS_9allocatorIiEEEEEEPvEEEENS_25__bucket_list_deallocatorINS5_ISD_EEEEE5resetB8ue170006EDn, symObjAddr: 0x4364, symBinAddr: 0x100006C58, symSize: 0x6C }
  - { offsetInCU: 0x10EFB, offset: 0x10EFB, size: 0x8, addend: 0x0, symName: __ZNSt3__111char_traitsIcE6lengthB8ue170006EPKc, symObjAddr: 0x45BC, symBinAddr: 0x100006EB0, symSize: 0x34 }
  - { offsetInCU: 0x10F3C, offset: 0x10F3C, size: 0x8, addend: 0x0, symName: __ZNKSt3__113basic_ostreamIcNS_11char_traitsIcEEE6sentrycvbB8ue170006Ev, symObjAddr: 0x45F0, symBinAddr: 0x100006EE4, symSize: 0x1C }
  - { offsetInCU: 0x10F62, offset: 0x10F62, size: 0x8, addend: 0x0, symName: __ZNSt3__119ostreambuf_iteratorIcNS_11char_traitsIcEEEC1B8ue170006ERNS_13basic_ostreamIcS2_EE, symObjAddr: 0x484C, symBinAddr: 0x100007140, symSize: 0x34 }
  - { offsetInCU: 0x10F9A, offset: 0x10F9A, size: 0x8, addend: 0x0, symName: __ZNKSt3__18ios_base5flagsB8ue170006Ev, symObjAddr: 0x4880, symBinAddr: 0x100007174, symSize: 0x18 }
  - { offsetInCU: 0x10FC2, offset: 0x10FC2, size: 0x8, addend: 0x0, symName: __ZNKSt3__19basic_iosIcNS_11char_traitsIcEEE4fillB8ue170006Ev, symObjAddr: 0x4898, symBinAddr: 0x10000718C, symSize: 0x64 }
  - { offsetInCU: 0x10FEA, offset: 0x10FEA, size: 0x8, addend: 0x0, symName: __ZNKSt3__119ostreambuf_iteratorIcNS_11char_traitsIcEEE6failedB8ue170006Ev, symObjAddr: 0x48FC, symBinAddr: 0x1000071F0, symSize: 0x24 }
  - { offsetInCU: 0x11010, offset: 0x11010, size: 0x8, addend: 0x0, symName: __ZNSt3__19basic_iosIcNS_11char_traitsIcEEE8setstateB8ue170006Ej, symObjAddr: 0x4920, symBinAddr: 0x100007214, symSize: 0x2C }
  - { offsetInCU: 0x11045, offset: 0x11045, size: 0x8, addend: 0x0, symName: __ZNKSt3__18ios_base5widthB8ue170006Ev, symObjAddr: 0x494C, symBinAddr: 0x100007240, symSize: 0x18 }
  - { offsetInCU: 0x1106D, offset: 0x1106D, size: 0x8, addend: 0x0, symName: __ZNSt3__115basic_streambufIcNS_11char_traitsIcEEE5sputnB8ue170006EPKcl, symObjAddr: 0x4964, symBinAddr: 0x100007258, symSize: 0x3C }
  - { offsetInCU: 0x110AF, offset: 0x110AF, size: 0x8, addend: 0x0, symName: __ZNSt3__112basic_stringIcNS_11char_traitsIcEENS_9allocatorIcEEEC1B8ue170006Emc, symObjAddr: 0x49A0, symBinAddr: 0x100007294, symSize: 0x3C }
  - { offsetInCU: 0x110F7, offset: 0x110F7, size: 0x8, addend: 0x0, symName: __ZNKSt3__112basic_stringIcNS_11char_traitsIcEENS_9allocatorIcEEE4dataB8ue170006Ev, symObjAddr: 0x49DC, symBinAddr: 0x1000072D0, symSize: 0x28 }
  - { offsetInCU: 0x1111D, offset: 0x1111D, size: 0x8, addend: 0x0, symName: __ZNSt3__18ios_base5widthB8ue170006El, symObjAddr: 0x4A04, symBinAddr: 0x1000072F8, symSize: 0x2C }
  - { offsetInCU: 0x11163, offset: 0x11163, size: 0x8, addend: 0x0, symName: __ZNSt3__112basic_stringIcNS_11char_traitsIcEENS_9allocatorIcEEEC2B8ue170006Emc, symObjAddr: 0x4A30, symBinAddr: 0x100007324, symSize: 0x4C }
  - { offsetInCU: 0x111AB, offset: 0x111AB, size: 0x8, addend: 0x0, symName: __ZNSt3__117__compressed_pairINS_12basic_stringIcNS_11char_traitsIcEENS_9allocatorIcEEE5__repES5_EC1B8ue170006INS_18__default_init_tagESA_EEOT_OT0_, symObjAddr: 0x4A7C, symBinAddr: 0x100007370, symSize: 0x3C }
  - { offsetInCU: 0x11203, offset: 0x11203, size: 0x8, addend: 0x0, symName: __ZNSt3__117__compressed_pairINS_12basic_stringIcNS_11char_traitsIcEENS_9allocatorIcEEE5__repES5_EC2B8ue170006INS_18__default_init_tagESA_EEOT_OT0_, symObjAddr: 0x4AB8, symBinAddr: 0x1000073AC, symSize: 0x3C }
  - { offsetInCU: 0x1125B, offset: 0x1125B, size: 0x8, addend: 0x0, symName: __ZNSt3__122__compressed_pair_elemINS_12basic_stringIcNS_11char_traitsIcEENS_9allocatorIcEEE5__repELi0ELb0EEC2B8ue170006ENS_18__default_init_tagE, symObjAddr: 0x4AF4, symBinAddr: 0x1000073E8, symSize: 0x14 }
  - { offsetInCU: 0x11290, offset: 0x11290, size: 0x8, addend: 0x0, symName: __ZNSt3__122__compressed_pair_elemINS_9allocatorIcEELi1ELb1EEC2B8ue170006ENS_18__default_init_tagE, symObjAddr: 0x4B08, symBinAddr: 0x1000073FC, symSize: 0x2C }
  - { offsetInCU: 0x112C5, offset: 0x112C5, size: 0x8, addend: 0x0, symName: __ZNSt3__19allocatorIcEC2B8ue170006Ev, symObjAddr: 0x4B34, symBinAddr: 0x100007428, symSize: 0x2C }
  - { offsetInCU: 0x112EF, offset: 0x112EF, size: 0x8, addend: 0x0, symName: __ZNSt3__116__non_trivial_ifILb1ENS_9allocatorIcEEEC2B8ue170006Ev, symObjAddr: 0x4B60, symBinAddr: 0x100007454, symSize: 0x14 }
  - { offsetInCU: 0x11319, offset: 0x11319, size: 0x8, addend: 0x0, symName: __ZNKSt3__112basic_stringIcNS_11char_traitsIcEENS_9allocatorIcEEE13__get_pointerB8ue170006Ev, symObjAddr: 0x4B88, symBinAddr: 0x10000747C, symSize: 0x54 }
  - { offsetInCU: 0x1133F, offset: 0x1133F, size: 0x8, addend: 0x0, symName: __ZNKSt3__112basic_stringIcNS_11char_traitsIcEENS_9allocatorIcEEE9__is_longB8ue170006Ev, symObjAddr: 0x4BDC, symBinAddr: 0x1000074D0, symSize: 0x38 }
  - { offsetInCU: 0x11365, offset: 0x11365, size: 0x8, addend: 0x0, symName: __ZNKSt3__112basic_stringIcNS_11char_traitsIcEENS_9allocatorIcEEE18__get_long_pointerB8ue170006Ev, symObjAddr: 0x4C14, symBinAddr: 0x100007508, symSize: 0x28 }
  - { offsetInCU: 0x1138B, offset: 0x1138B, size: 0x8, addend: 0x0, symName: __ZNKSt3__112basic_stringIcNS_11char_traitsIcEENS_9allocatorIcEEE19__get_short_pointerB8ue170006Ev, symObjAddr: 0x4C3C, symBinAddr: 0x100007530, symSize: 0x28 }
  - { offsetInCU: 0x113B1, offset: 0x113B1, size: 0x8, addend: 0x0, symName: __ZNKSt3__117__compressed_pairINS_12basic_stringIcNS_11char_traitsIcEENS_9allocatorIcEEE5__repES5_E5firstB8ue170006Ev, symObjAddr: 0x4C64, symBinAddr: 0x100007558, symSize: 0x24 }
  - { offsetInCU: 0x113D7, offset: 0x113D7, size: 0x8, addend: 0x0, symName: __ZNKSt3__122__compressed_pair_elemINS_12basic_stringIcNS_11char_traitsIcEENS_9allocatorIcEEE5__repELi0ELb0EE5__getB8ue170006Ev, symObjAddr: 0x4C88, symBinAddr: 0x10000757C, symSize: 0x14 }
  - { offsetInCU: 0x113FD, offset: 0x113FD, size: 0x8, addend: 0x0, symName: __ZNSt3__114pointer_traitsIPKcE10pointer_toB8ue170006ERS1_, symObjAddr: 0x4C9C, symBinAddr: 0x100007590, symSize: 0x14 }
  - { offsetInCU: 0x11420, offset: 0x11420, size: 0x8, addend: 0x0, symName: __ZNSt3__119ostreambuf_iteratorIcNS_11char_traitsIcEEEC2B8ue170006ERNS_13basic_ostreamIcS2_EE, symObjAddr: 0x4CB0, symBinAddr: 0x1000075A4, symSize: 0x54 }
  - { offsetInCU: 0x11458, offset: 0x11458, size: 0x8, addend: 0x0, symName: __ZNKSt3__19basic_iosIcNS_11char_traitsIcEEE5rdbufB8ue170006Ev, symObjAddr: 0x4D04, symBinAddr: 0x1000075F8, symSize: 0x24 }
  - { offsetInCU: 0x11480, offset: 0x11480, size: 0x8, addend: 0x0, symName: __ZNKSt3__18ios_base5rdbufB8ue170006Ev, symObjAddr: 0x4D28, symBinAddr: 0x10000761C, symSize: 0x18 }
  - { offsetInCU: 0x114A6, offset: 0x114A6, size: 0x8, addend: 0x0, symName: __ZNSt3__111char_traitsIcE11eq_int_typeB8ue170006Eii, symObjAddr: 0x4D40, symBinAddr: 0x100007634, symSize: 0x28 }
  - { offsetInCU: 0x114D9, offset: 0x114D9, size: 0x8, addend: 0x0, symName: __ZNSt3__111char_traitsIcE3eofB8ue170006Ev, symObjAddr: 0x4D68, symBinAddr: 0x10000765C, symSize: 0x8 }
  - { offsetInCU: 0x114ED, offset: 0x114ED, size: 0x8, addend: 0x0, symName: __ZNKSt3__19basic_iosIcNS_11char_traitsIcEEE5widenB8ue170006Ec, symObjAddr: 0x4D70, symBinAddr: 0x100007664, symSize: 0x84 }
  - { offsetInCU: 0x1155B, offset: 0x1155B, size: 0x8, addend: 0x0, symName: __ZNKSt3__15ctypeIcE5widenB8ue170006Ec, symObjAddr: 0x4E20, symBinAddr: 0x100007714, symSize: 0x38 }
  - { offsetInCU: 0x11590, offset: 0x11590, size: 0x8, addend: 0x0, symName: __ZNSt3__18ios_base8setstateB8ue170006Ej, symObjAddr: 0x4E58, symBinAddr: 0x10000774C, symSize: 0x34 }
...
